(lp0
S'fb:base.americancomedy.comedian.performed_in_venues'
p1
aS'fb:interests.hobby.people_with_this_hobby'
p2
aS'fb:royalty.royal_line.kingdom_s_ruled'
p3
aS'fb:base.nascar.nascar_race_instance.race'
p4
aS'fb:film.film.costume_design_by'
p5
aS'fb:fictional_universe.fictional_character.based_on'
p6
aS'fb:base.songsfromtv.songs_featured.songs_featured'
p7
aS'fb:location.country.capital'
p8
aS'fb:people.deceased_person.place_of_cremation'
p9
aS'fb:geography.lake.cities'
p10
aS'fb:base.disaster2.shipwreck_cause.ships_wrecked_this_way'
p11
aS'fb:food.culinary_technique.recipes'
p12
aS'fb:astronomy.celestial_object_category.objects'
p13
aS'fb:visual_art.artwork.art_genre'
p14
aS'fb:tv.tv_episode_segment.writer'
p15
aS'fb:computer.programming_language.influenced'
p16
aS'fb:automotive.make.model_s'
p17
aS'fb:government.governmental_jurisdiction.government_positions'
p18
aS'fb:tv.tv_writer.episodes_written'
p19
aS'fb:astronomy.astronomical_discovery.discovery_site'
p20
aS'fb:book.written_work.editor'
p21
aS'fb:music.album.releases'
p22
aS'fb:base.services.bank_branch.banking_services_provided'
p23
aS'fb:type.content.media_type'
p24
aS'fb:geography.geographical_feature_category.features'
p25
aS'fb:user.mbmuhr.default_domain.non_profit_organization.donors'
p26
aS'fb:aviation.airliner_accident.flight_origin'
p27
aS'fb:medicine.drug.physiologic_effect'
p28
aS'fb:base.ballet.ballet.choreographer'
p29
aS'fb:base.usnationalparks.us_national_park.closest_airports'
p30
aS'fb:base.argumentmaps.expression_of_disvalue.thing_of_disputed_value'
p31
aS'fb:base.parody.parodied_subject.parodies'
p32
aS'fb:base.usnationalparks.us_national_park.state'
p33
aS'fb:user.robert.military.military_person.participated_in_conflicts'
p34
aS'fb:geography.body_of_water.islands'
p35
aS'fb:exhibitions.exhibition.produced_by'
p36
aS'fb:computer.software_genre.software_in_genre'
p37
aS'fb:music.soundtrack.film'
p38
aS'fb:olympics.olympic_games.participating_countries'
p39
aS'fb:base.crime.crime.crime_type'
p40
aS'fb:base.activism.activism_issue.supporting_political_parties'
p41
aS'fb:base.fashionmodels.fashion_model.eye_color'
p42
aS'fb:spaceflight.satellite.launch_vehicle'
p43
aS'fb:user.jamie.military_awards.award.service'
p44
aS'fb:cricket.cricket_bowler.pace'
p45
aS'fb:education.school_district.lowest_grade_taught'
p46
aS'fb:transportation.bridge.body_of_water_spanned'
p47
aS'fb:sports.sport.leagues'
p48
aS'fb:music.recording.engineer'
p49
aS'fb:film.film_costumer_designer.costume_design_for_film'
p50
aS'fb:music.album.artist'
p51
aS'fb:opera.opera.librettist'
p52
aS'fb:ice_hockey.hockey_player.shoots'
p53
aS'fb:base.lawsandbox.legal_system.origin'
p54
aS'fb:user.chaswarner.default_domain.file_format.read_by'
p55
aS'fb:medicine.symptom.symptom_of'
p56
aS'fb:theater.play.orchestrator'
p57
aS'fb:computer.operating_system.supported_architectures'
p58
aS'fb:base.cars_refactor.make.model_s'
p59
aS'fb:sports.sports_position.sport'
p60
aS'fb:cvg.computer_videogame.sequel'
p61
aS'fb:tv.tv_program.languages'
p62
aS'fb:base.nascar.nascar_driver.car_make'
p63
aS'fb:fictional_universe.fictional_character.medical_conditions'
p64
aS'fb:fictional_universe.ethnicity_in_fiction.characters_of_this_ethnicity'
p65
aS'fb:opera.opera.genre'
p66
aS'fb:government.government_agency.government'
p67
aS'fb:american_football.football_team.away_games'
p68
aS'fb:comic_books.comic_book_character.created_by'
p69
aS'fb:chemistry.chemical_series.elements'
p70
aS'fb:internet.top_level_domain.domain_type'
p71
aS'fb:user.micahsaul.advertising.ad_campaign.type_of_campaign'
p72
aS'fb:biology.organism_classification.organisms_of_this_type'
p73
aS'fb:base.animemanga.anime_manga_franchise.sub_franchise'
p74
aS'fb:cvg.computer_game_mod.game_modded'
p75
aS'fb:type.permission.controls'
p76
aS'fb:fictional_universe.fictional_character.place_of_birth'
p77
aS'fb:visual_art.artwork.support'
p78
aS'fb:music.multipart_release.components'
p79
aS'fb:cvg.computer_videogame.influenced_by'
p80
aS'fb:base.pethealth.pet_disease_or_medical_condition.risk_factors'
p81
aS'fb:dining.cuisine.restaurant'
p82
aS'fb:user.lindenb.default_domain.scientist.worked_with'
p83
aS'fb:travel.hotel.operated_by'
p84
aS'fb:medicine.hospital.medical_specialties'
p85
aS'fb:tv.tv_subject.tv_programs'
p86
aS'fb:language.language_writing_system.parent_writing_systems'
p87
aS'fb:base.webvideo.internet_video_creator.series_created'
p88
aS'fb:fictional_universe.fictional_character.appears_in_these_fictional_universes'
p89
aS'fb:sports.sports_championship_event.championship'
p90
aS'fb:biology.animal_breed.coloring'
p91
aS'fb:religion.religion.beliefs'
p92
aS'fb:chemistry.chemical_element.discoverer'
p93
aS'fb:award.competition.competitors'
p94
aS'fb:government.election.office'
p95
aS'fb:biology.chromosome.gene'
p96
aS'fb:government.form_of_government.countries'
p97
aS'fb:medicine.drug.route_of_administration'
p98
aS'fb:games.game.origin'
p99
aS'fb:metropolitan_transit.transit_system.transit_service_types'
p100
aS'fb:geography.river.cities'
p101
aS'fb:music.artist.concert_tours'
p102
aS'fb:base.petbreeds.dog_temperament.dog_breeds'
p103
aS'fb:user.radiusrs.default_domain.astrological_sign.element'
p104
aS'fb:event.disaster.areas_affected'
p105
aS'fb:award.award_category.category_of'
p106
aS'fb:base.activism.organization.area_of_activism'
p107
aS'fb:user.robert.us_congress.congressional_caucus.current_house_members'
p108
aS'fb:media_common.quotation.author'
p109
aS'fb:soccer.football_pitch.matches'
p110
aS'fb:film.film_festival_event.films'
p111
aS'fb:base.aareas.schema.administrative_area_type.pertains_to'
p112
aS'fb:food.cheese.source_of_milk'
p113
aS'fb:film.film.country'
p114
aS'fb:common.document.replies'
p115
aS'fb:sports.golf_club_access.golf_clubs'
p116
aS'fb:base.usnris.nris_listing.significance_level'
p117
aS'fb:aviation.airport.operator'
p118
aS'fb:medicine.drug_form_shape.drugs_with_this_shape'
p119
aS'fb:food.type_of_dish.dishes'
p120
aS'fb:book.written_work.author'
p121
aS'fb:user.micahsaul.advertising.ad_campaign.advertiser'
p122
aS'fb:computer.programming_language.language_paradigms'
p123
aS'fb:aviation.airport.hub_for'
p124
aS'fb:metropolitan_transit.transit_service_type.transit_systems'
p125
aS'fb:location.us_county.hud_section_8_area'
p126
aS'fb:computer.operating_system.parent_os'
p127
aS'fb:architecture.museum.director'
p128
aS'fb:base.aareas.schema.administrative_area_type.iso_country'
p129
aS'fb:base.onephylogeny.type_of_thing.included_in'
p130
aS'fb:base.fight.sports_official.sport'
p131
aS'fb:business.business_operation.industry'
p132
aS'fb:base.pethealth.pet_disease_or_medical_condition.symptoms'
p133
aS'fb:geography.mountain_pass.range'
p134
aS'fb:comic_books.comic_book_character.story_specific_appearances'
p135
aS'fb:internet.website.status'
p136
aS'fb:fictional_universe.fictional_character.places_lived'
p137
aS'fb:location.in_state.judicial_capital'
p138
aS'fb:time.recurring_event.current_frequency'
p139
aS'fb:government.governmental_body.jurisdiction'
p140
aS'fb:amusement_parks.park.rides'
p141
aS'fb:architecture.structure.architecture_firm'
p142
aS'fb:music.artist.album'
p143
aS'fb:book.book.characters'
p144
aS'fb:music.album.genre'
p145
aS'fb:award.award.presented_by'
p146
aS'fb:education.school_newspaper.school'
p147
aS'fb:aviation.airline.alliance'
p148
aS'fb:cvg.computer_game_engine.engine_family'
p149
aS'fb:music.recording.tracks'
p150
aS'fb:book.written_work.previous_in_series'
p151
aS'fb:zoos.zoo_exhibit.species'
p152
aS'fb:base.thoroughbredracing.thoroughbred_racehorse.damsire'
p153
aS'fb:fictional_universe.medical_condition_in_fiction.characters_with_this_condition'
p154
aS'fb:astronomy.near_earth_object.near_earth_object_classification'
p155
aS'fb:law.constitutional_convention_delegate.constitutional_conventions'
p156
aS'fb:automotive.generation.make'
p157
aS'fb:cvg.game_version.distributed_through'
p158
aS'fb:aviation.aircraft_model.variants'
p159
aS'fb:time.event.includes_event'
p160
aS'fb:base.thoroughbredracing.thoroughbred_racehorse.color'
p161
aS'fb:base.ports.port_of_call.harbor_type'
p162
aS'fb:government.government_service.operating_organization'
p163
aS'fb:visual_art.artwork.period_or_movement'
p164
aS'fb:base.activism.activism_issue.activist_organizations'
p165
aS'fb:architecture.structure.destroyed_by'
p166
aS'fb:award.competition_type.competitions_of_this_type'
p167
aS'fb:user.robert.roman_empire.roman_emperor.emperor_of'
p168
aS'fb:religion.religion.branched_into'
p169
aS'fb:games.game_genre.boardgames'
p170
aS'fb:base.bioventurist.product.stage_of_development'
p171
aS'fb:award.competitor.competitions_won'
p172
aS'fb:medicine.manufactured_drug_form.flavor'
p173
aS'fb:film.film.cinematography'
p174
aS'fb:transportation.bridge.locale'
p175
aS'fb:religion.religion.places_of_worship'
p176
aS'fb:user.szaijan.fantasy_football.position.player'
p177
aS'fb:ice_hockey.hockey_player.hockey_position'
p178
aS'fb:user.alexander.misc.murdered_person.murdered_by'
p179
aS'fb:meteorology.cloud.varieties'
p180
aS'fb:tv.tv_subject.tv_episodes'
p181
aS'fb:base.gadgets.gadget.file_formats'
p182
aS'fb:sports.sports_team.arena_stadium'
p183
aS'fb:theater.theater_company.plays_produced'
p184
aS'fb:astronomy.astronomical_survey_project_organization.celestial_objects_discovered'
p185
aS'fb:food.cheese_milk_source.cheeses'
p186
aS'fb:computer.software.license'
p187
aS'fb:comic_books.comic_book_creator.characters_created'
p188
aS'fb:medicine.disease.prevention_factors'
p189
aS'fb:medicine.manufactured_drug_form.available_in'
p190
aS'fb:zoos.zoo.memberships'
p191
aS'fb:base.thoroughbredracing.thoroughbred_racehorse.foal_if_this_horse_is_sire'
p192
aS'fb:geography.mountain_listing.mountains'
p193
aS'fb:internet.top_level_domain_type.domains'
p194
aS'fb:medicine.drug_formulation.active_ingredient_moieties'
p195
aS'fb:user.micahsaul.advertising.ad_campaign_type.campaigns_of_this_type'
p196
aS'fb:base.classiccars.antique_car.body_styles'
p197
aS'fb:food.beer.beer_style'
p198
aS'fb:medicine.drug_physiologic_effect.drugs_with_this_physiologic_effect'
p199
aS'fb:food.ingredient.cuisine'
p200
aS'fb:automotive.model.make'
p201
aS'fb:government.government_position_held.office_holder'
p202
aS'fb:base.switzerland.ch_canton.capital'
p203
aS'fb:astronomy.astronomer.astronomical_objects_discovered'
p204
aS'fb:location.neighborhood.neighborhood_of'
p205
aS'fb:base.nascar.nascar_racing_organization.owners'
p206
aS'fb:base.cars_refactor.model.make'
p207
aS'fb:interests.hobbyist.hobbies'
p208
aS'fb:base.change.process.part_of_process'
p209
aS'fb:language.human_language.region'
p210
aS'fb:organization.organization_scope.organizations_with_this_scope'
p211
aS'fb:fictional_universe.fictional_substance.fictional_object'
p212
aS'fb:government.government_office_category.offices'
p213
aS'fb:geology.rock_type.parent_rock_type'
p214
aS'fb:digicams.digital_camera_manufacturer.cameras'
p215
aS'fb:base.cycleroute.cycle_route.network'
p216
aS'fb:base.disaster2.type_of_injury_causing_event.caused_by_activity'
p217
aS'fb:user.fluteflute.default_domain.radio_program.country_of_origin'
p218
aS'fb:people.deceased_person.place_of_death'
p219
aS'fb:base.musiteca.type_instrument.compositions'
p220
aS'fb:broadcast.broadcast.area_served'
p221
aS'fb:sports.sports_team.championships'
p222
aS'fb:geography.geographical_feature.category'
p223
aS'fb:time.holiday.type_of_holiday'
p224
aS'fb:book.author.works_edited'
p225
aS'fb:sports.multi_event_tournament.sports'
p226
aS'fb:music.instrument.variation'
p227
aS'fb:computer.computer.includes_models'
p228
aS'fb:amusement_parks.roller_coaster_material.roller_coasters'
p229
aS'fb:medicine.drug_formulation.formulation_of'
p230
aS'fb:common.topic.subject_of'
p231
aS'fb:visual_art.visual_art_form.artists'
p232
aS'fb:wine.appellation.wines'
p233
aS'fb:wine.wine.country'
p234
aS'fb:type.object.type'
p235
aS'fb:base.rugby.rugby_coach.type_of_rugby'
p236
aS'fb:base.webvideo.internet_video.genre'
p237
aS'fb:organization.leadership.role'
p238
aS'fb:aviation.aircraft_model.aircraft_type'
p239
aS'fb:base.animanga.franchise.anime_series'
p240
aS'fb:geography.lake.basin_countries'
p241
aS'fb:religion.religion.deities'
p242
aS'fb:media_common.quotation.subjects'
p243
aS'fb:people.person.religion'
p244
aS'fb:dining.restaurant.cuisine'
p245
aS'fb:fictional_universe.fictional_character.education'
p246
aS'fb:travel.travel_destination.accommodation'
p247
aS'fb:base.landcover.land_cover_class.spatial_extent'
p248
aS'fb:film.film_series.films_in_series'
p249
aS'fb:user.coco.science.concepts_theories.parent_concept'
p250
aS'fb:sports.sports_team_location.teams'
p251
aS'fb:basketball.basketball_position.players'
p252
aS'fb:broadcast.distributor.distributes'
p253
aS'fb:automotive.model.predecessor'
p254
aS'fb:location.postal_code.country'
p255
aS'fb:internet.website_owner.websites_owned'
p256
aS'fb:broadcast.broadcast.distributor'
p257
aS'fb:award.competition.type_of_competition'
p258
aS'fb:base.fight.labour_dispute.employer'
p259
aS'fb:fictional_universe.fictional_setting.universe'
p260
aS'fb:cvg.computer_game_engine.developer'
p261
aS'fb:medicine.icd_9_cm_classification.includes_classifications'
p262
aS'fb:user.tsturge.language.letter.alphabet'
p263
aS'fb:education.field_of_study.journals_in_this_discipline'
p264
aS'fb:medicine.disease.symptoms'
p265
aS'fb:medicine.drug_ingredient.active_moiety_of_drug'
p266
aS'fb:aviation.airline.accidents'
p267
aS'fb:education.school_category.schools_of_this_kind'
p268
aS'fb:astronomy.celestial_object.category'
p269
aS'fb:base.digitalcameras.slr_lens.lens_type'
p270
aS'fb:base.conservationaction.lead_agency_or_organization.program_s'
p271
aS'fb:medicine.drug_dosage_flavor.drugs_with_this_flavor'
p272
aS'fb:business.shopping_center_owner.shopping_centers_owned'
p273
aS'fb:basketball.basketball_player.position_s'
p274
aS'fb:astronomy.celestial_object_with_coordinate_system.planetographic_coordinate_system'
p275
aS'fb:organization.organization_type.organizations_of_this_type'
p276
aS'fb:cvg.computer_videogame.versions'
p277
aS'fb:food.ingredient.compatible_with_dietary_restrictions'
p278
aS'fb:finance.stock_exchange.primary_regions'
p279
aS'fb:base.militaryinfiction.military_unit_size_designation_in_fiction.units_of_this_size_in_fiction'
p280
aS'fb:base.yupgrade.user.topics'
p281
aS'fb:award.award_presenting_organization.awards_presented'
p282
aS'fb:base.survivor.survivor_location.survivor_us_season'
p283
aS'fb:american_football.football_division.teams'
p284
aS'fb:theater.theater_director.plays_directed'
p285
aS'fb:base.services.health_club.exercise_programs'
p286
aS'fb:architecture.museum.type_of_museum'
p287
aS'fb:cvg.cvg_publisher.game_versions_published'
p288
aS'fb:comic_strips.comic_strip_genre.comic_strips_of_this_genre'
p289
aS'fb:film.film_format.film_format'
p290
aS'fb:book.publishing_company.books_published'
p291
aS'fb:medicine.drug_pregnancy_category.drugs_in_this_category'
p292
aS'fb:base.bowlgames.bowl_game.stadium'
p293
aS'fb:people.person.quotations'
p294
aS'fb:base.banking.investment_scheme.included_in'
p295
aS'fb:chemistry.chemical_classification.chemicals_of_this_type'
p296
aS'fb:user.thadguidry.default_domain.broadcast_satellite.beam_area'
p297
aS'fb:music.album.album_content_type'
p298
aS'fb:broadcast.broadcast.content'
p299
aS'fb:meteorology.tropical_cyclone_season.tropical_cyclones'
p300
aS'fb:metropolitan_transit.transit_stop.transit_lines'
p301
aS'fb:base.digitalcameras.digital_camera.lens_mount'
p302
aS'fb:user.alexander.philosophy.philosopher.era'
p303
aS'fb:people.person.parents'
p304
aS'fb:base.services.local_business.payment_accepted'
p305
aS'fb:broadcast.tv_station.owner'
p306
aS'fb:book.book_edition.place_of_publication'
p307
aS'fb:broadcast.radio_station.owner'
p308
aS'fb:base.horsefacts.event_class.riding_style'
p309
aS'fb:media_common.netflix_genre.titles'
p310
aS'fb:sports.sport.related_equipment'
p311
aS'fb:religion.religious_practice.practice_of'
p312
aS'fb:broadcast.artist.content'
p313
aS'fb:user.kwelle.default_domain.snooker_tournament.tournament_location'
p314
aS'fb:architecture.lighthouse_construction_material.used_on_lighthouse'
p315
aS'fb:comic_books.comic_book_story.characters'
p316
aS'fb:base.wrestling.professional_wrestler.member_of_team'
p317
aS'fb:base.ikariam.ikariam_research.category'
p318
aS'fb:dining.cuisine.chefs'
p319
aS'fb:religion.deity.deity_of'
p320
aS'fb:education.grade_level.locations_used'
p321
aS'fb:geography.mountain.mountain_type'
p322
aS'fb:games.game_publisher.games_published'
p323
aS'fb:book.written_work.original_language'
p324
aS'fb:medicine.drug.pregnancy_category'
p325
aS'fb:base.christmas.christmas_carol.language'
p326
aS'fb:base.jewlib.parent_institution.judaica_owning_units'
p327
aS'fb:film.film.film_set_decoration_by'
p328
aS'fb:ice_hockey.hockey_position.players'
p329
aS'fb:base.classiccars.vintage_car.body_styles_produced'
p330
aS'fb:base.saturdaynightlive.snl_five_timer.five_timers_of_this_type'
p331
aS'fb:sports.sports_equipment.sport_used_for'
p332
aS'fb:visual_art.visual_artist.artworks'
p333
aS'fb:base.cryptography.cipher.created_by'
p334
aS'fb:tv.tv_program.genre'
p335
aS'fb:base.rugby.rugby_position.rugby_players_of_this_position'
p336
aS'fb:education.department.academics_old'
p337
aS'fb:base.pethealth.pet_disease_or_medical_condition.diagnosis'
p338
aS'fb:media_common.quotation_subject.quotations_about_this_subject'
p339
aS'fb:organization.club_interest.clubs'
p340
aS'fb:transportation.bridge_type.bridges_of_this_type'
p341
aS'fb:base.aareas.schema.administrative_area.administrative_area_type'
p342
aS'fb:media_common.quotation.spoken_by_character'
p343
aS'fb:medicine.drug.drug_class'
p344
aS'fb:book.written_work.part_of_series'
p345
aS'fb:computer.file_format.extended_from'
p346
aS'fb:fictional_universe.fictional_setting.works_set_here'
p347
aS'fb:base.activism.activist.area_of_activism'
p348
aS'fb:aviation.airliner_accident.aircraft_type'
p349
aS'fb:book.book_edition.author_editor'
p350
aS'fb:music.recording.song'
p351
aS'fb:base.morelaw.legal_case.court'
p352
aS'fb:base.fashionmodels.eye_color.fashion_models_with_this_eye_color'
p353
aS'fb:medicine.drug_class.drugs'
p354
aS'fb:fictional_universe.fictional_object.created_by'
p355
aS'fb:geography.mountain_type.mountains_of_this_type'
p356
aS'fb:user.robert.roman_empire.roman_emperor_title.emperors_with_this_title'
p357
aS'fb:government.primary_election.party'
p358
aS'fb:user.alexander.philosophy.school_of_thought.philosophers'
p359
aS'fb:metropolitan_transit.transit_vehicle.transit_lines'
p360
aS'fb:base.pokemon.pok_mon.based_on'
p361
aS'fb:film.actor.film'
p362
aS'fb:medicine.medical_specialty.physicians_with_this_specialty'
p363
aS'fb:protected_sites.protected_site.governing_body'
p364
aS'fb:base.saturdaynightlive.snl_episode.musical_guest'
p365
aS'fb:biology.breed_temperament.breeds'
p366
aS'fb:visual_art.visual_artist.art_forms'
p367
aS'fb:base.militaryinfiction.military_conflict_in_fiction.military_characters_involved'
p368
aS'fb:organization.organization.place_founded'
p369
aS'fb:soccer.football_match.referee'
p370
aS'fb:medicine.drug_formulation.dosage_form'
p371
aS'fb:geography.mountain.listings'
p372
aS'fb:base.petbreeds.dog_breed.group'
p373
aS'fb:music.composition.place_of_first_performance'
p374
aS'fb:fictional_universe.fictional_universe.organizations'
p375
aS'fb:digicams.camera_iso.cameras'
p376
aS'fb:astronomy.star_system_body.star_system'
p377
aS'fb:base.realitytv.reality_tv_contestant.season'
p378
aS'fb:language.language_dialect.language'
p379
aS'fb:baseball.baseball_league.teams'
p380
aS'fb:sports.sport.officials'
p381
aS'fb:base.saints.saint.feast_day'
p382
aS'fb:geography.glacier.terminus'
p383
aS'fb:base.birdconservation.bird_taxa.leg_band_size_s'
p384
aS'fb:periodicals.newspaper_circulation_area.newspapers'
p385
aS'fb:wine.wine.wine_type'
p386
aS'fb:cvg.computer_videogame.processors_supported'
p387
aS'fb:religion.founding_figure.religion_founded'
p388
aS'fb:film.film_featured_song.performed_by'
p389
aS'fb:automotive.company.make_s'
p390
aS'fb:people.ethnicity.includes_groups'
p391
aS'fb:user.radiusrs.default_domain.astrology.related_topics'
p392
aS'fb:base.disaster2.train_accident_cause.train_accidents_caused_this_way'
p393
aS'fb:broadcast.content.location'
p394
aS'fb:base.newsevents.photographed_event.photograph_s'
p395
aS'fb:user.rcheramy.default_domain.hockey_team.head_coach'
p396
aS'fb:film.film_set_designer.film_sets_designed'
p397
aS'fb:education.academic.advisees'
p398
aS'fb:base.litcentral.focal_taxa.conservation_projects'
p399
aS'fb:automotive.model.automotive_class'
p400
aS'fb:user.mt.default_domain.biofunction.metabolites'
p401
aS'fb:base.saturdaynightlive.snl_cast_member.highest_status_achieved'
p402
aS'fb:base.adultentertainment.adult_entertainer.sexual_orientation'
p403
aS'fb:engineering.material.parent_material_class'
p404
aS'fb:amusement_parks.ride.manufacturer'
p405
aS'fb:exhibitions.exhibition_subject.exhibitions_created_about_this_subject'
p406
aS'fb:theater.theatrical_composer.plays_composed'
p407
aS'fb:base.webvideo.internet_video.country_of_origin'
p408
aS'fb:amusement_parks.ride.area'
p409
aS'fb:location.location.partially_containedby'
p410
aS'fb:digicams.digital_camera.camera_sensor_manufacturer'
p411
aS'fb:film.film.directed_by'
p412
aS'fb:base.ballet.ballet_company.founder'
p413
aS'fb:cvg.computer_videogame.subjects'
p414
aS'fb:user.mt.default_domain.chemical_species.chemicals'
p415
aS'fb:user.jamie.food.food_additive.category'
p416
aS'fb:food.diet_follower.follows_diet'
p417
aS'fb:education.department.field'
p418
aS'fb:food.dish.cuisine'
p419
aS'fb:fictional_universe.fictional_object.featured_in_fictional_universe'
p420
aS'fb:education.athletics_brand.teams'
p421
aS'fb:music.recording.featured_artists'
p422
aS'fb:fictional_universe.fictional_language.found_in_fictional_universe'
p423
aS'fb:spaceflight.space_program.sponsor'
p424
aS'fb:computer.file_format_genre.file_formats'
p425
aS'fb:base.musicmanager.music_manager.managed'
p426
aS'fb:music.release.label'
p427
aS'fb:base.survivor.survivor_season.contestants'
p428
aS'fb:base.athletics.athletics_event.discipline'
p429
aS'fb:base.services.bank_services.banks'
p430
aS'fb:music.conductor.operas_conducted'
p431
aS'fb:base.petbreeds.dog_coat_color.dog_breeds'
p432
aS'fb:tv.tv_director.episodes_directed'
p433
aS'fb:people.person.ethnicity'
p434
aS'fb:base.pethealth.pet_disease_or_medical_condition.treatments'
p435
aS'fb:music.artist.origin'
p436
aS'fb:digicams.digital_camera.supported_storage_types'
p437
aS'fb:sports.defunct_sports_team.later_known_as'
p438
aS'fb:base.formula1.formula_1_driver.drivers_championship'
p439
aS'fb:automotive.automotive_class.examples'
p440
aS'fb:medicine.drug_formulation.legal_status'
p441
aS'fb:spaceflight.astronaut.space_agency'
p442
aS'fb:user.ndunham.default_domain.uol_drama.subject'
p443
aS'fb:base.gadgets.gadget.category'
p444
aS'fb:baseball.baseball_division.teams'
p445
aS'fb:base.folklore.named_mythical_creature.type_of_mythical_creature'
p446
aS'fb:military.military_person.participated_in_conflicts'
p447
aS'fb:geography.lake.lake_type'
p448
aS'fb:book.illustrator.books_illustrated'
p449
aS'fb:cvg.computer_videogame.publisher'
p450
aS'fb:user.micahsaul.advertising.advertised_thing.ad_campaigns'
p451
aS'fb:film.film.written_by'
p452
aS'fb:base.schemastaging.food_extra.narrower'
p453
aS'fb:base.paranormal.person_with_alleged_paranormal_powers.allegedly_responsible_for_paranormal_event'
p454
aS'fb:theater.theater_production.play'
p455
aS'fb:film.content_rating_system.film_ratings'
p456
aS'fb:base.barbie.barbie_doll.theme'
p457
aS'fb:spaceflight.space_mission.destination'
p458
aS'fb:music.producer.tracks_produced'
p459
aS'fb:internet.website.category'
p460
aS'fb:geography.island_group.islands_in_group'
p461
aS'fb:base.saints.saint.venerated_in'
p462
aS'fb:education.educational_institution.sports_teams'
p463
aS'fb:user.radiusrs.default_domain.astrological_sign.zodiac'
p464
aS'fb:medicine.drug_formulation.drug_category'
p465
aS'fb:base.database.database_topic.database_s_for_this_topic'
p466
aS'fb:base.environmentalism.environmental_issue.causes'
p467
aS'fb:base.natlang.grouped_topic.member_topics'
p468
aS'fb:theater.play.lyricist'
p469
aS'fb:olympics.olympic_games.events'
p470
aS'fb:fictional_universe.fictional_organization.type_of_organization'
p471
aS'fb:music.release.track'
p472
aS'fb:user.tsegaran.computer.algorithm.family'
p473
aS'fb:time.event.instance_of_recurring_event'
p474
aS'fb:geography.mountain.mountain_range'
p475
aS'fb:base.engineering.water_reservoir_use.dams_with_this_purpose'
p476
aS'fb:film.film.film_art_direction_by'
p477
aS'fb:music.release.producers'
p478
aS'fb:theater.theatrical_orchestrator.plays_orchestrated'
p479
aS'fb:user.arielb.default_domain.concentration_camp.survivors'
p480
aS'fb:education.academic.advisors'
p481
aS'fb:architecture.architectural_style.architects'
p482
aS'fb:education.academic.research_areas'
p483
aS'fb:military.military_unit.armed_force'
p484
aS'fb:language.language_family.sub_families'
p485
aS'fb:food.drinking_establishment.drinking_establishment_type'
p486
aS'fb:event.disaster_victim.killed_in_disaster'
p487
aS'fb:tv.tv_program.filming_locations'
p488
aS'fb:amusement_parks.ride_theme.rides'
p489
aS'fb:base.cars_refactor.generation.model'
p490
aS'fb:royalty.monarch.royal_line'
p491
aS'fb:metropolitan_transit.transit_system.transit_lines'
p492
aS'fb:aviation.aircraft_model.engine_type'
p493
aS'fb:location.location.contains_major_portion_of'
p494
aS'fb:visual_art.art_period_movement.associated_artworks'
p495
aS'fb:basketball.basketball_team.head_coach'
p496
aS'fb:base.skosbase.skos_concept_scheme.concepts'
p497
aS'fb:base.qualia.type_of_disability.support_advocacy_groups'
p498
aS'fb:travel.travel_destination.local_transportation'
p499
aS'fb:base.dancingwiththestars.professional_performer.seasons_on_dwts'
p500
aS'fb:location.country.languages_spoken'
p501
aS'fb:film.film.film_format'
p502
aS'fb:media_common.netflix_title.netflix_genres'
p503
aS'fb:baseball.baseball_team.division'
p504
aS'fb:opera.opera_house.productions'
p505
aS'fb:language.language_writing_system.type_of_writing'
p506
aS'fb:astronomy.extraterrestrial_location.type_of_planetographic_feature'
p507
aS'fb:biology.organism_classification_rank.organism_classifications'
p508
aS'fb:people.ethnicity.geographic_distribution'
p509
aS'fb:religion.religion.sacred_sites'
p510
aS'fb:internet.blog.focus'
p511
aS'fb:cvg.computer_game_subject.games'
p512
aS'fb:user.jeremy.default_domain.mma_fighter.next_opponent'
p513
aS'fb:organization.organization.locations'
p514
aS'fb:music.album.primary_release'
p515
aS'fb:education.educational_institution.subsidiary_or_constituent_schools'
p516
aS'fb:meteorology.tropical_cyclone.tropical_cyclone_season'
p517
aS'fb:user.alexander.philosophy.idea.philosopher'
p518
aS'fb:olympics.olympic_games.sports'
p519
aS'fb:digicams.camera_sensor_type.digital_cameras'
p520
aS'fb:visual_art.artwork.art_subject'
p521
aS'fb:base.philbsuniverse.musical_album_detailed_view.artist_s_or_band_s'
p522
aS'fb:user.robert.tallest.building.preceded_by'
p523
aS'fb:music.artist.genre'
p524
aS'fb:sports.boxer.weight_division'
p525
aS'fb:music.music_video.directed_by'
p526
aS'fb:base.thoroughbredracing.thoroughbred_racehorse_breeder.horses_bred'
p527
aS'fb:base.fictionaluniverse.deceased_fictional_character.cause_of_death'
p528
aS'fb:american_football.football_team.conference'
p529
aS'fb:award.competitor.competitions'
p530
aS'fb:base.americancomedy.double_act.comic'
p531
aS'fb:film.film_casting_director.films_casting_directed'
p532
aS'fb:base.militaryinfiction.location_in_fiction.languages'
p533
aS'fb:base.filmcameras.camera.viewfinder_type'
p534
aS'fb:food.ingredient.more_general_ingredient'
p535
aS'fb:cvg.game_version.publisher'
p536
aS'fb:base.argumentmaps.event_of_disputed_occurance.people_who_think_it_didn_t_happen'
p537
aS'fb:book.book_character.appears_in_book'
p538
aS'fb:music.composition.lyricist'
p539
aS'fb:base.petbreeds.exercise_requirements.dog_breed'
p540
aS'fb:user.robert.roman_empire.roman_emperor.successor'
p541
aS'fb:computer.internet_protocol.software_used_by'
p542
aS'fb:cvg.video_game_soundtrack.video_game'
p543
aS'fb:language.language_writing_system.languages'
p544
aS'fb:base.usnris.significance_level.listings'
p545
aS'fb:book.translation.translation_of'
p546
aS'fb:boats.ship_builder.ships_built'
p547
aS'fb:base.animemanga.anime_studio.anime_titles'
p548
aS'fb:business.industry.child_industry'
p549
aS'fb:law.judge.cases'
p550
aS'fb:base.fictionaluniverse.fictional_clone.clone_of'
p551
aS'fb:music.composition.recordings'
p552
aS'fb:basketball.basketball_coach.team'
p553
aS'fb:geography.lake.outflow'
p554
aS'fb:user.jschell.default_domain.fictional_character.appeared_in'
p555
aS'fb:film.editor.film'
p556
aS'fb:user.sandos.research.research_project.research_topic'
p557
aS'fb:dataworld.gardening_hint.split_to'
p558
aS'fb:base.greencars.electric_hybrid_car.ice_fuel'
p559
aS'fb:american_football.football_game.home_team'
p560
aS'fb:astronomy.star_system.planetary_system'
p561
aS'fb:location.country.currency_used'
p562
aS'fb:comic_books.comic_book_series.featured_characters'
p563
aS'fb:base.roses.rose_color.roses_of_this_color'
p564
aS'fb:film.film.film_series'
p565
aS'fb:base.localfood.farm.produce'
p566
aS'fb:base.rosetta.local_name.languoid'
p567
aS'fb:base.reviews.review.reviewed_topic'
p568
aS'fb:astronomy.star.constellation'
p569
aS'fb:base.services.dance_studio.forms_of_dance'
p570
aS'fb:people.person.children'
p571
aS'fb:film.cinematographer.film'
p572
aS'fb:food.dish.type_of_dish1'
p573
aS'fb:base.engineering.mine.materials_extracted'
p574
aS'fb:food.candy_bar.sold_in'
p575
aS'fb:base.skosbase.skos_concept.broader'
p576
aS'fb:book.author.book_editions_published'
p577
aS'fb:base.argumentmaps.original_idea.innovator'
p578
aS'fb:base.americancomedy.impersonated_celebrity.impersonated_by'
p579
aS'fb:education.school.highest_grade_taught'
p580
aS'fb:business.shopping_center.owner'
p581
aS'fb:film.film_festival.location'
p582
aS'fb:medicine.icd_9_cm_classification.parent_classification'
p583
aS'fb:music.engineer.releases_engineered'
p584
aS'fb:base.services.accounting_service.accounting_service_secialties'
p585
aS'fb:language.conlang.created_by'
p586
aS'fb:base.bioventurist.science_or_technology_company.develops_treatments_for_disease'
p587
aS'fb:spaceflight.astronaut.missions'
p588
aS'fb:music.recording.releases'
p589
aS'fb:digicams.digital_camera.uncompressed_formats'
p590
aS'fb:user.narphorium.default_domain.profession.specializations'
p591
aS'fb:base.newsevents.photographer.pictures_taken'
p592
aS'fb:common.topic.image'
p593
aS'fb:amusement_parks.ride.ride_type'
p594
aS'fb:book.publishing_company.imprints'
p595
aS'fb:finance.currency.countries_formerly_used'
p596
aS'fb:base.petbreeds.dog_breed.exercise_requirement'
p597
aS'fb:medicine.disease.treatments'
p598
aS'fb:opera.librettist.libretti'
p599
aS'fb:cvg.cvg_developer.game_versions_developed'
p600
aS'fb:base.services.insurance_type.insurers'
p601
aS'fb:base.thoroughbredracing.thoroughbred_racehorse_color.horses_of_this_color'
p602
aS'fb:base.adultentertainment.adult_entertainer.specialises_in_fetishes'
p603
aS'fb:biology.organism.organism_type'
p604
aS'fb:base.saturdaynightlive.snl_episode.host'
p605
aS'fb:computer.file_format.read_by'
p606
aS'fb:base.locations.continents.countries_within'
p607
aS'fb:fictional_universe.fictional_setting.languages'
p608
aS'fb:fictional_universe.fictional_setting.characters_that_have_lived_here'
p609
aS'fb:metropolitan_transit.transit_agency.systems'
p610
aS'fb:base.petbreeds.chicken_breed.primary_use'
p611
aS'fb:music.recording.artist'
p612
aS'fb:computer.computer.processor'
p613
aS'fb:base.pinball.pinball_machine_manufacturer.pinball_machines'
p614
aS'fb:people.person.nationality'
p615
aS'fb:zoos.zoo.exhibits'
p616
aS'fb:fictional_universe.fictional_character.has_possessed'
p617
aS'fb:computer.software.languages_used'
p618
aS'fb:fictional_universe.fictional_setting.setting_type'
p619
aS'fb:aviation.airport.focus_city_for'
p620
aS'fb:comic_books.comic_book_inker.comic_books_inked'
p621
aS'fb:book.book_edition.book'
p622
aS'fb:food.candy_bar_manufacturer.candy_bars'
p623
aS'fb:tv.tv_genre.programs'
p624
aS'fb:theater.play.characters'
p625
aS'fb:book.written_work.next_in_series'
p626
aS'fb:book.book.editions'
p627
aS'fb:base.obamabase.cabinet_position.potential_cabinet_members'
p628
aS'fb:comic_books.comic_book_creator.series_created'
p629
aS'fb:aviation.aircraft_manufacturer.aircraft_models_made'
p630
aS'fb:religion.religious_text.religious_text_of'
p631
aS'fb:medicine.disease.notable_people_with_this_condition'
p632
aS'fb:sports.school_sports_team.school'
p633
aS'fb:tv.tv_series_episode.series'
p634
aS'fb:film.film.prequel'
p635
aS'fb:user.kesava.indian_railways_base.railway_zone.divisions'
p636
aS'fb:influence.influence_node.influenced_by'
p637
aS'fb:sports.sports_team.location'
p638
aS'fb:base.infrastructure.power_plant_type.power_station'
p639
aS'fb:martial_arts.martial_artist.martial_arts_students'
p640
aS'fb:book.isbn.book_editions'
p641
aS'fb:basketball.basketball_team.division'
p642
aS'fb:base.yalebase.residential_college.alumni'
p643
aS'fb:base.nascar.nascar_race.race_instances'
p644
aS'fb:opera.opera.language'
p645
aS'fb:visual_art.visual_art_support.artworks'
p646
aS'fb:film.film_festival.focus'
p647
aS'fb:base.adultentertainment.adult_media.sexual_orientations_displayed'
p648
aS'fb:music.genre.artists'
p649
aS'fb:internet.protocol.api'
p650
aS'fb:fictional_universe.school_in_fiction.students_graduates'
p651
aS'fb:base.petbreeds.dog_breed.family_friendly'
p652
aS'fb:spaceflight.space_agency.astronauts'
p653
aS'fb:automotive.model.generations'
p654
aS'fb:film.producer.films_executive_produced'
p655
aS'fb:base.thoroughbredracing.thoroughbred_racehorse_sex.horses_of_this_sex'
p656
aS'fb:travel.hotel.operating_brand'
p657
aS'fb:location.country.form_of_government'
p658
aS'fb:fictional_universe.type_of_fictional_setting.settings'
p659
aS'fb:comic_books.comic_book_genre.comic_book_series_in_this_genre'
p660
aS'fb:music.release.region'
p661
aS'fb:pipeline.task.status'
p662
aS'fb:music.release_track.recording'
p663
aS'fb:cvg.computer_videogame.uses_game_engine'
p664
aS'fb:base.nasagcmd.gcmd_keyword1.included_within_keyword'
p665
aS'fb:base.rosetta.languoid.parent'
p666
aS'fb:base.thoroughbredracing.thoroughbred_racehorse.breeder'
p667
aS'fb:cricket.cricket_bowler.technique'
p668
aS'fb:film.film.produced_by'
p669
aS'fb:user.alecf.default_domain.audio_program_host.shows_hosted'
p670
aS'fb:base.folklore.mythology.mythical_creatures'
p671
aS'fb:education.school.school_district'
p672
aS'fb:user.micahsaul.five_alarm_food.hot_sauce.ingredients'
p673
aS'fb:spaceflight.space_program.missions'
p674
aS'fb:base.litcentral.focal_location.land_manager'
p675
aS'fb:tv.tv_series_episode.previous_episode'
p676
aS'fb:base.movietheatres.movie_theatre.type_of_movietheatre'
p677
aS'fb:event.disaster.survivors'
p678
aS'fb:geography.mountaineer.first_ascents'
p679
aS'fb:user.alecf.default_domain.audio_program_distribution.shows'
p680
aS'fb:base.survivor.survivor_contestant.awarded_immunity'
p681
aS'fb:base.infrastructure.power_station.fuel_type'
p682
aS'fb:base.dancingwiththestars.professional_performer.celebrity_dance_partner'
p683
aS'fb:base.rosetta.languoid.languoid_class'
p684
aS'fb:computer.computer_peripheral_class.instances'
p685
aS'fb:user.sue_anne.default_domain.olympic_medal_event.gold_medalist'
p686
aS'fb:user.osprey.default_domain.service_area.location'
p687
aS'fb:computer.computer.manufacturer'
p688
aS'fb:wine.wine.region'
p689
aS'fb:book.school_or_movement.associated_authors'
p690
aS'fb:sports.tournament_event.tournaments_contested_in'
p691
aS'fb:martial_arts.martial_artist.martial_art'
p692
aS'fb:business.brand.products'
p693
aS'fb:medicine.manufactured_drug_form.shape'
p694
aS'fb:meteorology.cyclone_affected_area.cyclones'
p695
aS'fb:user.robert.us_congress.us_representative.state'
p696
aS'fb:astronomy.astronomical_discovery.discoverer'
p697
aS'fb:film.content_rating.film'
p698
aS'fb:film.film_subject.films'
p699
aS'fb:music.composition.recorded_as_album'
p700
aS'fb:film.film.executive_produced_by'
p701
aS'fb:digicams.digital_camera.iso_setting'
p702
aS'fb:spaceflight.space_mission.space_program'
p703
aS'fb:user.micahsaul.advertising.advertiser.ad_campaigns'
p704
aS'fb:business.company_advisor.companies_advised'
p705
aS'fb:base.terrorism.terrorist_organization.considered_terrorist_by'
p706
aS'fb:base.crime.criminal_organisation.type_of_criminal_organization'
p707
aS'fb:base.charities.geographic_scope.charities'
p708
aS'fb:religion.religion.texts'
p709
aS'fb:broadcast.content.genre'
p710
aS'fb:book.periodical.language'
p711
aS'fb:conferences.conference_subject.series_of_conferences_about_this'
p712
aS'fb:tv.tv_series_season.series'
p713
aS'fb:base.schemastaging.recurring_event_extra.location'
p714
aS'fb:cricket.cricket_bowler.bowling_style'
p715
aS'fb:music.composer.compositions'
p716
aS'fb:law.court.legal_cases'
p717
aS'fb:dining.chef.cuisines'
p718
aS'fb:location.fr_region.departments'
p719
aS'fb:architecture.destruction_method.structures_destroyed'
p720
aS'fb:type.user.usergroup'
p721
aS'fb:architecture.architect.structures_designed'
p722
aS'fb:theater.play.genre'
p723
aS'fb:martial_arts.martial_art.category'
p724
aS'fb:language.human_language.writing_system'
p725
aS'fb:base.webvideo.internet_video_genre.series'
p726
aS'fb:location.administrative_division.country'
p727
aS'fb:base.americancomedy.celebrity_impressionist.celebrities_impersonated'
p728
aS'fb:base.nascar.nascar_driver.team'
p729
aS'fb:base.breakfast.breakfast_cereal_mascot.brand'
p730
aS'fb:award.award_discipline.awards_in_this_discipline'
p731
aS'fb:people.cause_of_death.includes_causes_of_death'
p732
aS'fb:travel.accommodation.features'
p733
aS'fb:music.composition.musical_key'
p734
aS'fb:olympics.olympic_games.host_city'
p735
aS'fb:base.casinos.casino_theme.casinos_in_this_theme'
p736
aS'fb:base.morelaw.canadian_judge.court'
p737
aS'fb:base.thoroughbredracing.thoroughbred_racehorse.sex'
p738
aS'fb:broadcast.radio_station_owner.radio_stations'
p739
aS'fb:visual_art.artwork.art_form'
p740
aS'fb:tv.tv_program.spun_off_from'
p741
aS'fb:music.genre.subgenre'
p742
aS'fb:base.rivalries.rivalry.rival'
p743
aS'fb:tv.tv_series_episode.next_episode'
p744
aS'fb:organization.organization.advisors'
p745
aS'fb:base.givennames.given_name.language'
p746
aS'fb:cricket.cricket_player.batting_style'
p747
aS'fb:base.cocktails.cocktail.standard_garnish'
p748
aS'fb:government.governmental_jurisdiction.agencies'
p749
aS'fb:cvg.game_version.game'
p750
aS'fb:architecture.landscape_architect.landscape_project'
p751
aS'fb:medicine.condition_prevention_factors.conditions_this_may_prevent'
p752
aS'fb:base.nascar.nascar_racing_organization.drivers'
p753
aS'fb:base.petbreeds.cat_temperament.cat_breeds'
p754
aS'fb:medicine.drug_ingredient.active_moiety_of_formulation'
p755
aS'fb:digicams.camera_storage_type.compatible_cameras'
p756
aS'fb:sports.sports_official.sport'
p757
aS'fb:geography.island.body_of_water'
p758
aS'fb:fictional_universe.fictional_character.ethnicity'
p759
aS'fb:book.poem.verse_form'
p760
aS'fb:medicine.disease.includes_diseases'
p761
aS'fb:fictional_universe.fictional_character.occupation'
p762
aS'fb:base.argumentmaps.morally_disputed_activity.instance_of_abstract_moral_dispute'
p763
aS'fb:comic_books.comic_book_character.cover_appearances'
p764
aS'fb:geography.mountain_range.passes'
p765
aS'fb:religion.religious_jurisdiction_class.jurisdiction'
p766
aS'fb:film.film_production_designer.films_production_designed'
p767
aS'fb:language.language_family.member_of_language_families'
p768
aS'fb:organization.organization.founders'
p769
aS'fb:base.skateboarding.skateboarding_tricks.associated_skateboarder'
p770
aS'fb:book.book.genre'
p771
aS'fb:location.administrative_division.first_level_division_of'
p772
aS'fb:music.voice.singers'
p773
aS'fb:event.disaster_type.disasters_of_this_type'
p774
aS'fb:film.film.locations'
p775
aS'fb:base.retail.retailer.brand'
p776
aS'fb:theater.theater_choreographer.plays_choreographed'
p777
aS'fb:film.content_rating.country'
p778
aS'fb:comic_books.comic_book_fictional_universe.characters_primarily_appearing_in_this_universe'
p779
aS'fb:film.film_art_director.films_art_directed'
p780
aS'fb:exhibitions.exhibition.subjects'
p781
aS'fb:digicams.digital_camera.sensor_type'
p782
aS'fb:broadcast.radio_format.stations'
p783
aS'fb:base.schemastaging.non_profit_classification.organizations'
p784
aS'fb:award.recurring_competition.individual_competitions'
p785
aS'fb:medicine.drug_ingredient.more_specific_ingredient'
p786
aS'fb:user.mt.default_domain.metabolite.tissue_location'
p787
aS'fb:base.folklore.mythical_creature_location.mythical_creature_s'
p788
aS'fb:base.phobias.phobia.also_caused_by_medical_condition'
p789
aS'fb:cvg.cvg_platform.games'
p790
aS'fb:chemistry.chemical_classification.higher_classifications'
p791
aS'fb:base.litcentral.focal_location.generic_landscape_description'
p792
aS'fb:book.book_edition.isbn'
p793
aS'fb:base.breakfast.breakfast_cereal_theme.brands'
p794
aS'fb:education.school.lowest_grade_taught'
p795
aS'fb:base.obamabase.possible_cabinet_member.cabinet_position'
p796
aS'fb:geography.island.island_group'
p797
aS'fb:royalty.royal_line.succeeded_by'
p798
aS'fb:user.robert.roman_empire.roman_dynasty.emperors'
p799
aS'fb:travel.travel_destination.tourist_attractions'
p800
aS'fb:sports.sports_league.sport'
p801
aS'fb:medicine.medical_treatment.side_effects'
p802
aS'fb:film.music_contributor.film'
p803
aS'fb:geography.river.mouth'
p804
aS'fb:fashion.garment.specialization_of'
p805
aS'fb:sports.sports_team_coach.sports_coached'
p806
aS'fb:soccer.football_player.position_s'
p807
aS'fb:music.guitarist.guitars_played'
p808
aS'fb:base.ndbcd.buoy.type_of_buoy'
p809
aS'fb:film.film.music'
p810
aS'fb:baseball.baseball_player.position_s'
p811
aS'fb:digicams.digital_camera.manufacturer'
p812
aS'fb:military.military_unit.place_of_origin'
p813
aS'fb:base.technologyofdoing.knowledge_worker_practice.included_in'
p814
aS'fb:user.alexander.misc.murdered_person.place_murdered'
p815
aS'fb:chemistry.element_discoverer.discovered'
p816
aS'fb:cvg.computer_game_engine.used_for_computer_games'
p817
aS'fb:time.day_of_year.holidays'
p818
aS'fb:medicine.drug.legal_status'
p819
aS'fb:base.activism.activism_issue.activists'
p820
aS'fb:base.eating.diets.people_who_follow_this_diet'
p821
aS'fb:user.robert.us_congress.house_committee.current_members'
p822
aS'fb:base.thoroughbredracing.thoroughbred_racehorse.grand_foal_if_horse_is_damsire'
p823
aS'fb:basketball.basketball_team.conference'
p824
aS'fb:music.composition.form'
p825
aS'fb:base.pinball.pinball_machine.designer'
p826
aS'fb:computer.computer_processor.used_in_computers'
p827
aS'fb:base.petbreeds.cat_breed.temperament'
p828
aS'fb:base.locations.states_and_provences.country'
p829
aS'fb:cvg.computer_videogame.developer'
p830
aS'fb:business.company_type.companies_of_this_type'
p831
aS'fb:wine.wine_region.wines'
p832
aS'fb:cvg.computer_videogame.gameplay_modes'
p833
aS'fb:religion.belief.belief_of'
p834
aS'fb:location.location.people_born_here'
p835
aS'fb:boats.ship.designer'
p836
aS'fb:film.film.film_casting_director'
p837
aS'fb:games.game.genre'
p838
aS'fb:tv.tv_series_episode.director'
p839
aS'fb:location.location.contains'
p840
aS'fb:base.saturdaynightlive.snl_host.episodes_hosted'
p841
aS'fb:cricket.cricket_tournament_event.teams'
p842
aS'fb:music.album_release_type.albums'
p843
aS'fb:base.fictionaluniverse.fictional_killer.characters_killed'
p844
aS'fb:interests.collectable_item.collection_category'
p845
aS'fb:broadcast.producer.produces'
p846
aS'fb:medicine.drug_ingredient.active_ingredient_of_formulation'
p847
aS'fb:location.location.primarily_containedby'
p848
aS'fb:music.featured_artist.recordings'
p849
aS'fb:cvg.computer_videogame.platforms'
p850
aS'fb:base.americancivilwar.military_unit.conflicts_participated_in'
p851
aS'fb:olympics.olympic_event.olympic_games_contested'
p852
aS'fb:base.onephylogeny.type_of_thing.includes'
p853
aS'fb:sports.sports_facility.teams'
p854
aS'fb:computer.software_genre.subgenres'
p855
aS'fb:computer.computer_emulator.computer'
p856
aS'fb:base.bioventurist.science_or_technology_company.area_of_expertise'
p857
aS'fb:book.author.series_written_or_contributed_to'
p858
aS'fb:protected_sites.governing_body_of_protected_sites.protected_sites_governed'
p859
aS'fb:protected_sites.park_system.member_parks'
p860
aS'fb:base.monster.monster_species.monstrous_subspecies'
p861
aS'fb:theater.theater_production.performed_at'
p862
aS'fb:music.compositional_form.compositions'
p863
aS'fb:fictional_universe.fictional_universe.created_by'
p864
aS'fb:base.musicfestival.music_festival_event.artists'
p865
aS'fb:soccer.football_team.matches'
p866
aS'fb:people.person.languages'
p867
aS'fb:computer.programming_language_designer.languages_designed'
p868
aS'fb:base.reviews.review.mentions'
p869
aS'fb:book.written_work.school_or_movement'
p870
aS'fb:wine.wine.appellation'
p871
aS'fb:media_common.media_genre.parent_genre'
p872
aS'fb:architecture.building.building_function'
p873
aS'fb:base.events.festival_series.type_of_festival'
p874
aS'fb:medicine.medical_specialty.diseases_treated'
p875
aS'fb:user.robert.us_congress.congressional_district.state'
p876
aS'fb:food.ingredient.more_specific_ingredient'
p877
aS'fb:people.deceased_person.cause_of_death'
p878
aS'fb:base.rosetta.languoid.local_name'
p879
aS'fb:base.services.veterinarian.veterinary_specialty'
p880
aS'fb:amusement_parks.ride.park'
p881
aS'fb:computer.programming_language.influenced_by'
p882
aS'fb:base.aareas.schema.administrative_area.capital'
p883
aS'fb:games.game_designer.games_designed'
p884
aS'fb:cvg.computer_videogame.soundtracks'
p885
aS'fb:medicine.drug_administration_route.drug_formulations'
p886
aS'fb:fictional_universe.fictional_character.parents'
p887
aS'fb:law.court.superior_courts'
p888
aS'fb:boats.ship.hull_material'
p889
aS'fb:biology.organism_classification.rank'
p890
aS'fb:theater.theater_production.producing_company'
p891
aS'fb:government.government_agency.jurisdiction'
p892
aS'fb:film.film.sequel'
p893
aS'fb:biology.organism.sex'
p894
aS'fb:base.saturdaynightlive.snl_fiver_timer.type_of_five_timer'
p895
aS'fb:film.film.production_companies'
p896
aS'fb:base.csafarms.csa_product.providers'
p897
aS'fb:user.rcheramy.default_domain.hockey_team.city'
p898
aS'fb:base.petbreeds.dog_breed.color'
p899
aS'fb:metropolitan_transit.transit_line.service_type'
p900
aS'fb:astronomy.asteroid.member_of_asteroid_group'
p901
aS'fb:boats.ship.ship_class'
p902
aS'fb:base.barbie.barbie_theme.dolls_with_this_theme'
p903
aS'fb:royalty.kingdom.rulers'
p904
aS'fb:basketball.basketball_division.teams'
p905
aS'fb:baseball.baseball_team.current_manager'
p906
aS'fb:government.government_office_or_title.governmental_body_if_any'
p907
aS'fb:location.country.second_level_divisions'
p908
aS'fb:base.culturalevent.event.entity_involved'
p909
aS'fb:award.hall_of_fame_discipline.halls_of_fame'
p910
aS'fb:fictional_universe.fictional_character.gender'
p911
aS'fb:user.tsegaran.language.phrase.original_language'
p912
aS'fb:government.government_agency.provides_service'
p913
aS'fb:comic_books.comic_book_series.genre'
p914
aS'fb:base.schemastaging.educational_institution_extra.libraries'
p915
aS'fb:base.bioventurist.product.developed_by'
p916
aS'fb:base.aareas.schema.administrative_area_type.expected_codes'
p917
aS'fb:fictional_universe.character_powers.characters_with_this_ability'
p918
aS'fb:broadcast.content.artist'
p919
aS'fb:music.group_member.artists_supported'
p920
aS'fb:amusement_parks.ride.designer'
p921
aS'fb:base.givennames.given_name.gender'
p922
aS'fb:location.in_state.administrative_capital'
p923
aS'fb:sports.boxing_weight_division.boxers_rated_at_this_weight'
p924
aS'fb:book.book_edition.contributing_authors'
p925
aS'fb:event.disaster_survivor.survived_disasters'
p926
aS'fb:user.tsturge.language.alphabet.letter'
p927
aS'fb:education.field_of_study.subdiscipline_of'
p928
aS'fb:broadcast.genre.content'
p929
aS'fb:user.robert.default_domain.given_name.people'
p930
aS'fb:government.governmental_body.component_bodies'
p931
aS'fb:government.governmental_body.body_this_is_a_component_of'
p932
aS'fb:people.profession.specializations'
p933
aS'fb:biology.organism.children'
p934
aS'fb:people.ethnicity.people'
p935
aS'fb:book.poem_character.appears_in_poems'
p936
aS'fb:biology.animal_breed.temperament'
p937
aS'fb:sports.sports_team.colors'
p938
aS'fb:user.skud.embassies_and_consulates.embassy.from_country'
p939
aS'fb:conferences.conference_sponsor.conferences'
p940
aS'fb:language.language_family.languages'
p941
aS'fb:book.newspaper.owner'
p942
aS'fb:sports.sports_team_owner.teams_owned'
p943
aS'fb:sports.sport.teams'
p944
aS'fb:base.ancientegypt.pharaoh.successor'
p945
aS'fb:law.invention.inventor'
p946
aS'fb:base.animemanga.anime_manga_creator.anime_manga_created'
p947
aS'fb:amusement_parks.amusement_park_area.rides'
p948
aS'fb:base.fight.crime_type.includes_crimes'
p949
aS'fb:film.producer.film'
p950
aS'fb:base.sports.sports_draft_pick.draft'
p951
aS'fb:business.consumer_product.product_line'
p952
aS'fb:film.film_genre.films_in_this_genre'
p953
aS'fb:film.film.story_by'
p954
aS'fb:user.szaijan.fantasy_football.player.position'
p955
aS'fb:base.pethealth.treatment.used_to_treat'
p956
aS'fb:medicine.drug_formulation.routes'
p957
aS'fb:biology.pedigreed_animal.breed'
p958
aS'fb:tv.tv_program.episodes'
p959
aS'fb:biology.breed_origin.breeds_originating_here'
p960
aS'fb:american_football.football_coach.current_team_head_coached'
p961
aS'fb:tv.tv_program.seasons'
p962
aS'fb:astronomy.celestial_object.locations'
p963
aS'fb:cvg.game_version.developer'
p964
aS'fb:freebase.user_profile.favorite_films'
p965
aS'fb:location.administrative_division.second_level_division_of'
p966
aS'fb:user.jg.default_domain.olympic_games.sports'
p967
aS'fb:chemistry.chemical_element.chemical_series'
p968
aS'fb:music.composition.place_composed'
p969
aS'fb:book.book_subject.works'
p970
aS'fb:music.genre.albums'
p971
aS'fb:biology.animal_breed.place_of_origin'
p972
aS'fb:business.business_location.in_shopping_center'
p973
aS'fb:people.place_of_interment.interred_here'
p974
aS'fb:dining.cuisine.dishes'
p975
aS'fb:education.field_of_study.subdisciplines'
p976
aS'fb:tv.tv_program.program_creator'
p977
aS'fb:event.disaster.type_of_disaster'
p978
aS'fb:base.satelites.natural_satellite.orbited_body'
p979
aS'fb:visual_art.artwork.belongs_to_series'
p980
aS'fb:film.film.featured_film_locations'
p981
aS'fb:base.biblioness.bibs_location.state'
p982
aS'fb:base.morelaw.lawsuit.plaintiff'
p983
aS'fb:broadcast.tv_station_owner.tv_stations'
p984
aS'fb:time.holiday.day_of_year'
p985
aS'fb:organization.organization.geographic_scope'
p986
aS'fb:media_common.adaptation.adapted_from'
p987
aS'fb:user.mikeshwe.hairstyles.hairstyle.celebrities'
p988
aS'fb:astronomy.extraterrestrial_location.on_celestial_object'
p989
aS'fb:book.magazine_genre.magazines_in_this_genre'
p990
aS'fb:protected_sites.protected_site.iucn_category'
p991
aS'fb:internet.website.owner'
p992
aS'fb:location.location.partially_contains'
p993
aS'fb:user.lindenb.default_domain.scientist.known_for'
p994
aS'fb:tv.tv_rating.tv_episodes'
p995
aS'fb:computer.software.software_genre'
p996
aS'fb:cvg.game_version.regions'
p997
aS'fb:visual_art.art_series.subject'
p998
aS'fb:religion.type_of_place_of_worship.places_of_worship'
p999
aS'fb:cvg.computer_videogame.prequel'
p1000
aS'fb:medicine.drug_formulation.active_ingredients'
p1001
aS'fb:base.survivor.survivor_episode.survivors_awarded_with_immunity'
p1002
aS'fb:royalty.noble_title.noble_rank'
p1003
aS'fb:tv.tv_series_episode.tv_rating'
p1004
aS'fb:film.director.film'
p1005
aS'fb:base.activism.activism_issue.includes_issues'
p1006
aS'fb:film.film_featured_song.featured_in_film'
p1007
aS'fb:astronomy.constellation.contains'
p1008
aS'fb:radio.radio_program.subjects'
p1009
aS'fb:astronomy.astronomical_discovery.discovery_organization'
p1010
aS'fb:government.political_party.ideology'
p1011
aS'fb:base.services.retail_location.retail_location_clientele'
p1012
aS'fb:medicine.drug_dosage_form.formulations_available_in_this_form'
p1013
aS'fb:type.type.domain'
p1014
aS'fb:base.pethealth.diagnosis.used_to_diagnose'
p1015
aS'fb:geography.body_of_water.bridges'
p1016
aS'fb:fictional_universe.fictional_character.character_created_by'
p1017
aS'fb:film.film_story_contributor.film_story_credits'
p1018
aS'fb:architecture.building_complex.buildings_in_complex'
p1019
aS'fb:cvg.computer_videogame.influenced'
p1020
aS'fb:medicine.manufactured_drug_form.manufacturer'
p1021
aS'fb:biology.gene.chromosome'
p1022
aS'fb:book.written_work.subjects'
p1023
aS'fb:spaceflight.spacecraft.manufacturer'
p1024
aS'fb:base.ikariam.ikariam_research_category.researches'
p1025
aS'fb:cvg.computer_videogame.designers'
p1026
aS'fb:user.jonathanwlowe.location.city_limits.bounds_city'
p1027
aS'fb:tv.tv_soundtrack.tv_program'
p1028
aS'fb:government.political_ideology.political_parties'
p1029
aS'fb:music.engineer.tracks_engineered'
p1030
aS'fb:media_common.media_genre.child_genres'
p1031
aS'fb:base.breakfast.breakfast_cereal_brand.ingredients'
p1032
aS'fb:olympics.olympic_host_city.olympics_hosted'
p1033
aS'fb:base.bioventurist.science_or_technology_company.products'
p1034
aS'fb:user.skud.boats.vessel.use'
p1035
aS'fb:interests.collection_category.sub_categories'
p1036
aS'fb:religion.religion.notable_figures'
p1037
aS'fb:base.petbreeds.dog_breed.temperament'
p1038
aS'fb:people.person.gender'
p1039
aS'fb:base.skosbase.skos_concept.narrower_topic'
p1040
aS'fb:base.argumentmaps.innovator.original_ideas'
p1041
aS'fb:education.educational_institution.school_type'
p1042
aS'fb:cvg.cvg_platform.games_on_this_platform'
p1043
aS'fb:architecture.lighthouse.construction'
p1044
aS'fb:transportation.bridge.bridge_type'
p1045
aS'fb:book.literary_series.works_in_this_series'
p1046
aS'fb:base.saturdaynightlive.snl_musical_guest.episodes_as_musical_guest'
p1047
aS'fb:base.services.doctor.hospital_affiliations'
p1048
aS'fb:user.patrick.default_domain.tagged_topic.tags'
p1049
aS'fb:base.events.subject_of_festival.festivals_of_this_type'
p1050
aS'fb:people.cause_of_death.people'
p1051
aS'fb:exhibitions.exhibition_producer.exhibitions_produced'
p1052
aS'fb:architecture.architectural_style.examples'
p1053
aS'fb:location.location.events'
p1054
aS'fb:user.kurt.default_domain.thoughtranker.revered_by'
p1055
aS'fb:metropolitan_transit.transit_line.terminuses'
p1056
aS'fb:base.peleton.road_bicycle_racing_event.road_cycling_race_this_is_an_event_of'
p1057
aS'fb:base.dancingwiththestars.season.celebrity_performer'
p1058
aS'fb:medicine.drug_manufacturer.drugs_manufactured'
p1059
aS'fb:base.schemastaging.food_extra.broader'
p1060
aS'fb:base.animal_synopses.synopsized_animal.has_synopsis'
p1061
aS'fb:user.chaswarner.default_domain.computer_program.reads'
p1062
aS'fb:film.film.soundtrack'
p1063
aS'fb:computer.operating_system.developer'
p1064
aS'fb:base.skosbase.vocabulary_equivalent_topic.equivalent_concept'
p1065
aS'fb:travel.hotel_operator.hotels_operated'
p1066
aS'fb:tv.tv_series_episode.writer'
p1067
aS'fb:theater.theater_production.producer'
p1068
aS'fb:computer.software.developer'
p1069
aS'fb:religion.religious_organization.jurisdictions'
p1070
aS'fb:base.thoroughbredracing.thoroughbred_racehorse.country'
p1071
aS'fb:medicine.disease.medical_specialties'
p1072
aS'fb:opera.opera_genre.operas_in_this_genre'
p1073
aS'fb:location.country.currency_formerly_used'
p1074
aS'fb:base.ecology.type_of_ecosystem.ecosystems_of_this_type'
p1075
aS'fb:government.government_office_or_title.category'
p1076
aS'fb:amusement_parks.roller_coaster.material'
p1077
aS'fb:aviation.airport.serves'
p1078
aS'fb:martial_arts.martial_art.well_known_practitioner'
p1079
aS'fb:award.award_category.presenting_organization'
p1080
aS'fb:base.trails.trail.activity'
p1081
aS'fb:base.skills.skilled_role.performs'
p1082
aS'fb:freebase.valuenotation.is_reviewed'
p1083
aS'fb:base.fight.crime_type.victims_of_this_crime_type'
p1084
aS'fb:biology.organism.place_of_birth'
p1085
aS'fb:geography.lake.inflow'
p1086
aS'fb:broadcast.content.language'
p1087
aS'fb:music.release.track_list'
p1088
aS'fb:soccer.football_position.players'
p1089
aS'fb:religion.place_of_worship.religion'
p1090
aS'fb:base.pethealth.pet_disease_or_medical_condition.pets_affected'
p1091
aS'fb:medicine.vaccine.infectious_disease'
p1092
aS'fb:amusement_parks.amusement_park_area.parks'
p1093
aS'fb:medicine.manufactured_drug_form.color'
p1094
aS'fb:biology.organism_classification.lower_classifications'
p1095
aS'fb:automotive.make.parent_company'
p1096
aS'fb:sports.sport.team_coaches'
p1097
aS'fb:basketball.basketball_conference.divisions'
p1098
aS'fb:biology.genome.gene'
p1099
aS'fb:education.educational_institution.newspaper'
p1100
aS'fb:film.production_company.films'
p1101
aS'fb:base.classiccars.classic_car.body_styles_produced'
p1102
aS'fb:location.location.time_zones'
p1103
aS'fb:food.ingredient.incompatible_with_dietary_restrictions'
p1104
aS'fb:user.narphorium.default_domain.base_equivalent_location.base'
p1105
aS'fb:time.recurring_event.instances'
p1106
aS'fb:architecture.structure.architect'
p1107
aS'fb:film.film.rating'
p1108
aS'fb:user.robert.roman_empire.roman_region.emperors'
p1109
aS'fb:fictional_universe.fictional_setting.fictional_characters_born_here'
p1110
aS'fb:medicine.disease.parent_disease'
p1111
aS'fb:user.robert.roman_empire.roman_emperor.title'
p1112
aS'fb:tv.tv_series_season.episodes'
p1113
aS'fb:fictional_universe.fictional_character.rank'
p1114
aS'fb:organization.organization_partnership.members'
p1115
aS'fb:travel.accommodation.accommodation_type'
p1116
aS'fb:military.military_conflict.military_personnel_involved'
p1117
aS'fb:user.alexander.misc.murderer.people_murdered'
p1118
aS'fb:cvg.cvg_publisher.games_published'
p1119
aS'fb:business.product_line.products'
p1120
aS'fb:broadcast.content.producer'
p1121
aS'fb:medicine.drug.mechanism_of_action'
p1122
aS'fb:architecture.structure.contractor'
p1123
aS'fb:medicine.disease_cause.diseases'
p1124
aS'fb:base.adultentertainment.adult_media.sexual_fetishes_portrayed'
p1125
aS'fb:computer.computer_manufacturer_brand.computer_models'
p1126
aS'fb:olympics.olympic_sport.olympic_games_contested'
p1127
aS'fb:medicine.drug_administration_route.administered_drugs'
p1128
aS'fb:user.ktrueman.default_domain.governing_body.member_organizations'
p1129
aS'fb:base.recordingstudios.recording_studio.albums_recorded_here'
p1130
aS'fb:location.place_with_neighborhoods.neighborhoods'
p1131
aS'fb:user.trondarild.default_domain.medical_sign.associated_condition'
p1132
aS'fb:cvg.cvg_developer.games_developed'
p1133
aS'fb:comic_strips.comic_strip.genre'
p1134
aS'fb:music.artist.supporting_artists'
p1135
aS'fb:sports.sports_team.member_of'
p1136
aS'fb:fictional_universe.fictional_character.species'
p1137
aS'fb:base.aareas.schema.administrative_area.pertinent_type'
p1138
aS'fb:base.thoroughbredracing.thoroughbred_racehorse_origin.horses_from_this_location'
p1139
aS'fb:comic_books.comic_book_series.created_by'
p1140
aS'fb:religion.place_of_worship.type_of_place_of_worship'
p1141
aS'fb:user.duck1123.default_domain.alternate_persona.personae'
p1142
aS'fb:time.holiday.featured_in_religions'
p1143
aS'fb:fictional_universe.fictional_character_creator.fictional_characters_created'
p1144
aS'fb:military.military_unit_size.units_of_this_type'
p1145
aS'fb:base.skosbase.skos_concept.equivalent_topic'
p1146
aS'fb:chemistry.chemical_element.discovering_country'
p1147
aS'fb:music.composition.subjects'
p1148
aS'fb:food.dish.ingredients'
p1149
aS'fb:medicine.drug_ingredient.more_general_ingredient'
p1150
aS'fb:base.petbreeds.family_friendly.dog_breed'
p1151
aS'fb:education.educational_institution_campus.educational_institution'
p1152
aS'fb:user.alexander.philosophy.philosopher.interests'
p1153
aS'fb:internet.website_status.sites'
p1154
aS'fb:biology.organism_classification.higher_classification'
p1155
aS'fb:food.ingredient.dishes'
p1156
aS'fb:base.rugby.type_of_rugby.players_of_this_type_of_rugby'
p1157
aS'fb:location.us_county.hud_county_place'
p1158
aS'fb:military.armed_force.military_combatant'
p1159
aS'fb:music.album.release_type'
p1160
aS'fb:visual_art.art_subject.artwork_on_the_subject'
p1161
aS'fb:base.americancivilwar.campaign.battle'
p1162
aS'fb:transportation.road.major_cities'
p1163
aS'fb:user.techgnostic.default_domain.magazine_topic.periodical'
p1164
aS'fb:base.bioventurist.technology_class.products_involving_this_technology'
p1165
aS'fb:music.producer.releases_produced'
p1166
aS'fb:aviation.airline.focus_cities'
p1167
aS'fb:visual_art.visual_art_form.artworks'
p1168
aS'fb:award.award_presenting_organization.award_categories_presented'
p1169
aS'fb:american_football.football_game.away_team'
p1170
aS'fb:base.morelaw.legal_system.court'
p1171
aS'fb:visual_art.visual_art_genre.artworks'
p1172
aS'fb:base.vancouver.location_in_neighborhood.neighborhood'
p1173
aS'fb:base.aareas.schema.administrative_area.administrative_children'
p1174
aS'fb:computer.software_developer.software'
p1175
aS'fb:spaceflight.rocket.country_of_origin'
p1176
aS'fb:food.dietary_restriction.compatible_ingredients'
p1177
aS'fb:travel.guidebook.travel_destinations_covered'
p1178
aS'fb:tv.tv_series_episode.season'
p1179
aS'fb:base.recordingstudios.studio_musician.insturments_played'
p1180
aS'fb:book.magazine.genre'
p1181
aS'fb:business.industry.parent_industry'
p1182
aS'fb:user.cip22.default_domain.design_pattern.pattern_type'
p1183
aS'fb:organization.organization.organization_type'
p1184
aS'fb:music.record_label.artist'
p1185
aS'fb:music.group_member.instruments_played'
p1186
aS'fb:base.roses.roses.country_of_origin'
p1187
aS'fb:music.album.featured_artists'
p1188
aS'fb:people.chinese_ethnic_group.autonomous_regions'
p1189
aS'fb:book.book.interior_illustrations_by'
p1190
aS'fb:theater.theater.theatrical_productions_staged_here'
p1191
aS'fb:location.country.first_level_divisions'
p1192
aS'fb:fictional_universe.fictional_character.organizations'
p1193
aS'fb:olympics.olympic_sport.events'
p1194
aS'fb:comic_books.comic_book_writer.comic_books_written'
p1195
aS'fb:base.meedan.arabic_language_media_source.city'
p1196
aS'fb:fictional_universe.fictional_organization_type.organizations'
p1197
aS'fb:architecture.structure.engineer'
p1198
aS'fb:games.game.derived_from'
p1199
aS'fb:medicine.drug_brand.canonical_drug'
p1200
aS'fb:time.day_of_year.calendar_system'
p1201
aS'fb:education.educational_institution.mascot'
p1202
aS'fb:language.human_language.main_country'
p1203
aS'fb:base.wrestling.professional_wrestling_manager.managed'
p1204
aS'fb:base.fashionmodels.hair_color.fashion_models_with_this_hair_color'
p1205
aS'fb:fictional_universe.character_species.found_in_fictional_universe'
p1206
aS'fb:music.artist.track'
p1207
aS'fb:organization.organization.sectors'
p1208
aS'fb:religion.monastery.religion'
p1209
aS'fb:biology.domesticated_animal.breeds'
p1210
aS'fb:baseball.baseball_player.bats'
p1211
aS'fb:base.ancientegypt.tomb.excavated_by'
p1212
aS'fb:education.fraternity_sorority.colors'
p1213
aS'fb:location.country.administrative_divisions'
p1214
aS'fb:book.author.works_written'
p1215
aS'fb:soccer.football_match.teams'
p1216
aS'fb:medicine.medical_treatment.used_to_treat'
p1217
aS'fb:boats.ship.place_built'
p1218
aS'fb:travel.accommodation_type.accommodation_of_this_type'
p1219
aS'fb:internet.blog.blogger'
p1220
aS'fb:aviation.aircraft_type.aircraft_of_this_type'
p1221
aS'fb:wine.wine_sub_region.wines'
p1222
aS'fb:law.constitution.amendments'
p1223
aS'fb:aviation.aircraft_designer.aircraft_models_designed'
p1224
aS'fb:base.lookalikes.twin.twin_members'
p1225
aS'fb:medicine.disease.risk_factors'
p1226
aS'fb:award.award_category.disciplines_or_subjects'
p1227
aS'fb:book.book_edition.binding'
p1228
aS'fb:opera.opera_production.performed_at'
p1229
aS'fb:base.musiteca.performer.place_of_residence'
p1230
aS'fb:base.ndbcd.buoy.owned_by'
p1231
aS'fb:cvg.computer_videogame.game_series'
p1232
aS'fb:visual_art.art_period_movement.associated_artists'
p1233
aS'fb:royalty.monarch.kingdom'
p1234
aS'fb:travel.hotel_brand.hotels_in_this_brand'
p1235
aS'fb:base.minerals.crystalline_material.polymorphic_forms'
p1236
aS'fb:symbols.namesake.named_after'
p1237
aS'fb:fictional_universe.person_in_fiction.representations_in_fiction'
p1238
aS'fb:aviation.aircraft_model.designed_by'
p1239
aS'fb:military.military_combatant.armed_forces'
p1240
aS'fb:time.holiday_category.holidays'
p1241
aS'fb:film.film.subjects'
p1242
aS'fb:base.mathematics1.mathematical_concept.generalizations'
p1243
aS'fb:sports.sports_championship.events'
p1244
aS'fb:base.animemanga.anime_manga_franchise.genre'
p1245
aS'fb:user.alexander.philosophy.subject.philosophers'
p1246
aS'fb:base.paranormal.person_with_alleged_paranormal_powers.type_of_paranormal_ability'
p1247
aS'fb:base.skosbase.skos_concept.broader_topic'
p1248
aS'fb:base.peleton.road_bicycle_racing_event.teams_participating_uci_protour'
p1249
aS'fb:base.americancivilwar.battle.campaign'
p1250
aS'fb:user.techgnostic.default_domain.periodical.subject'
p1251
aS'fb:base.folklore.mythical_creature.mythology'
p1252
aS'fb:film.film.film_festivals'
p1253
aS'fb:religion.religion.practices'
p1254
aS'fb:medicine.drug_formulation_category.drug_formulations'
p1255
aS'fb:military.armed_force.units'
p1256
aS'fb:american_football.football_team.division'
p1257
aS'fb:base.pipesmoking.component_tobacco.pipe_tobaccos_with_this_component'
p1258
aS'fb:metropolitan_transit.transit_line.transit_system'
p1259
aS'fb:wine.wine.color'
p1260
aS'fb:medicine.drug.marketed_formulations'
p1261
aS'fb:film.film_location.featured_in_films'
p1262
aS'fb:sports.sports_league.championship'
p1263
aS'fb:government.government_agency.successor_agency'
p1264
aS'fb:military.military_unit.unit_size'
p1265
aS'fb:baseball.baseball_team.league'
p1266
aS'fb:geography.geographical_feature_category.subcategory_of'
p1267
aS'fb:music.composition.language'
p1268
aS'fb:base.bioventurist.product.technology_involved'
p1269
aS'fb:base.aareas.schema.administrative_area.administrative_parent'
p1270
aS'fb:book.newspaper.circulation_areas'
p1271
aS'fb:religion.religious_leadership_jurisdiction.organisation'
p1272
aS'fb:cvg.computer_game_compilation.games_included'
p1273
aS'fb:education.field_of_study.academic_departments'
p1274
aS'fb:language.human_language.language_family'
p1275
aS'fb:protected_sites.iucn_category.protected_areas'
p1276
aS'fb:business.consumer_product.brand'
p1277
aS'fb:sports.sports_league_season.league'
p1278
aS'fb:architecture.type_of_museum.museums'
p1279
aS'fb:digicams.camera_compressed_format.cameras'
p1280
aS'fb:computer.computer_processor.manufacturers'
p1281
aS'fb:base.americancivilwar.battle.military_units_involved_in_this_conflict'
p1282
aS'fb:film.film.primary_language'
p1283
aS'fb:military.military_unit_place_of_origin.military_units'
p1284
aS'fb:base.services.spa.cosmetic_treatments'
p1285
aS'fb:aviation.airport.airport_type'
p1286
aS'fb:music.artist.label'
p1287
aS'fb:sports.boxer.stance'
p1288
aS'fb:type.object.permission'
p1289
aS'fb:music.group_member.vocal_range'
p1290
aS'fb:fictional_universe.fictional_character.powers_or_abilities'
p1291
aS'fb:computer.computing_platform.file_formats_supported'
p1292
aS'fb:film.writer.film'
p1293
aS'fb:astronomy.orbital_relationship.orbited_by'
p1294
aS'fb:comic_books.comic_book_publisher.comic_book_series_published'
p1295
aS'fb:base.schemastaging.body_of_water_extra.fish'
p1296
aS'fb:base.schemastaging.non_profit_extra.classification'
p1297
aS'fb:astronomy.astronomical_observatory.discoveries'
p1298
aS'fb:astronomy.type_of_planetographic_feature.planetographic_features_of_this_type'
p1299
aS'fb:base.bioventurist.technology_class.company_involved'
p1300
aS'fb:base.rosetta.languoid.child'
p1301
aS'fb:meteorology.tropical_cyclone.affected_areas'
p1302
aS'fb:business.product_theme.product_lines'
p1303
aS'fb:type.content.language'
p1304
aS'fb:aviation.airline_alliance.member_airlines'
p1305
aS'fb:organization.organization_founder.organizations_founded'
p1306
aS'fb:tv.tv_program.subjects'
p1307
aS'fb:music.record_label.releases'
p1308
aS'fb:government.government_office_or_title.jurisdiction'
p1309
aS'fb:tv.tv_program_creator.programs_created'
p1310
aS'fb:theater.theater_production.director'
p1311
aS'fb:american_football.football_team.home_games'
p1312
aS'fb:broadcast.producer.location'
p1313
aS'fb:boats.ship.ship_builder'
p1314
aS'fb:fictional_universe.character_gender.characters_of_this_gender'
p1315
aS'fb:biology.animal_breed.breed_of'
p1316
aS'fb:base.animemanga.anime_manga_genre.anime_manga_franchises'
p1317
aS'fb:base.aareas.schema.administrative_area_type.subdivides_place'
p1318
aS'fb:base.cookingsupplyandequipment.cooking_material_supplier.specialization_if_any'
p1319
aS'fb:base.locations.countries.continent'
p1320
aS'fb:type.type.properties'
p1321
aS'fb:film.film_collection.films_in_collection'
p1322
aS'fb:boats.ship_type.ship_class'
p1323
aS'fb:base.argumentmaps.thinker.thinks_this_doesn_t_exist'
p1324
aS'fb:base.thoroughbredracing.thoroughbred_racehorse.sire'
p1325
aS'fb:theater.musical_soundtrack.play'
p1326
aS'fb:user.mt.default_domain.metabolite.biofluid_location'
p1327
aS'fb:music.genre.parent_genre'
p1328
aS'fb:base.saints.feast_day.saint'
p1329
aS'fb:religion.monastery.religious_order'
p1330
aS'fb:business.defunct_company.reason_for_ceasing_operations'
p1331
aS'fb:base.bioventurist.bv_medical_condition.company_involved'
p1332
aS'fb:book.periodical_subject.periodicals'
p1333
aS'fb:base.cocktails.cocktail.standard_drinkware'
p1334
aS'fb:base.caveart.cave.galleries'
p1335
aS'fb:sports.sports_team.sport'
p1336
aS'fb:tv.tv_program.country_of_origin'
p1337
aS'fb:computer.software.protocols_used'
p1338
aS'fb:time.event.included_in_event'
p1339
aS'fb:distilled_spirits.distilled_spirit_type.blends'
p1340
aS'fb:internet.top_level_domain.sponsor'
p1341
aS'fb:book.magazine_issue.interior_illustrations_by'
p1342
aS'fb:cvg.computer_videogame.peripherals_supported'
p1343
aS'fb:user.robert.us_congress.us_representative.committee_memberships'
p1344
aS'fb:biology.organism.parents'
p1345
aS'fb:aviation.aircraft_model.accidents'
p1346
aS'fb:music.instrument.instrumentalists'
p1347
aS'fb:base.americancivilwar.campaign.theater'
p1348
aS'fb:wine.wine.wine_sub_region'
p1349
aS'fb:education.fraternity_sorority.colleges_and_universities'
p1350
aS'fb:games.game.publisher'
p1351
aS'fb:sports.sports_championship_event.champion'
p1352
aS'fb:music.music_video.music_video_song'
p1353
aS'fb:user.tsegaran.computer.algorithm_family.algorithm'
p1354
aS'fb:broadcast.content.broadcast'
p1355
aS'fb:base.eating.practicer_of_diet.diet'
p1356
aS'fb:aviation.airline.hubs'
p1357
aS'fb:people.person.place_of_birth'
p1358
aS'fb:base.skosbase.vocabulary_equivalent_topic.broader_concept'
p1359
aS'fb:exhibitions.exhibit.exhibitions_displayed_in'
p1360
aS'fb:user.robert.mobile_phones.mobile_phone.carriers'
p1361
aS'fb:people.family_member.family'
p1362
aS'fb:tv.tv_theme_song.theme_song_for'
p1363
aS'fb:people.cause_of_death.parent_cause_of_death'
p1364
aS'fb:base.patronage.patron.patronized_sector'
p1365
aS'fb:theater.theater_character.plays_appears_in'
p1366
aS'fb:theater.play.composer'
p1367
aS'fb:base.filmcameras.camera.manufacturer'
p1368
aS'fb:music.lyricist.lyrics_written'
p1369
aS'fb:tv.tv_program.theme_song'
p1370
aS'fb:metropolitan_transit.transit_stop.terminus_for_lines'
p1371
aS'fb:user.mt.default_domain.metabolite.associated_disorder'
p1372
aS'fb:geography.river.basin_countries'
p1373
aS'fb:fictional_universe.fictional_universe.characters'
p1374
aS'fb:geography.mountain_range.mountains'
p1375
aS'fb:automotive.manufacturing_plant.company'
p1376
aS'fb:base.eventparticipants.known_participants.participated_in'
p1377
aS'fb:music.music_video_director.music_videos_directed'
p1378
aS'fb:sports.tournament_event.sport'
p1379
aS'fb:tv.tv_program.soundtrack'
p1380
aS'fb:base.icons.icon.icon_genre'
p1381
aS'fb:religion.religion.is_part_of'
p1382
aS'fb:food.candy_bar.manufacturer'
p1383
aS'fb:finance.currency.countries_used'
p1384
aS'fb:olympics.olympic_event.sport'
p1385
aS'fb:user.szaijan.fantasy_football.player.nfl_team'
p1386
aS'fb:people.family.country'
p1387
aS'fb:media_common.quotation_source.quotations'
p1388
aS'fb:aviation.aircraft_model.manufacturer'
p1389
aS'fb:user.mt.default_domain.metabolite.chemical_species'
p1390
aS'fb:music.featured_artist.albums'
p1391
aS'fb:aviation.airliner_accident.operator'
p1392
aS'fb:media_common.literary_genre.stories_in_this_genre'
p1393
aS'fb:chemistry.chemical_element.isotopes'
p1394
aS'fb:comic_books.comic_book_character.regular_featured_appearances'
p1395
aS'fb:location.country.official_language'
p1396
aS'fb:computer.computer.parent_model'
p1397
aS'fb:cvg.computer_game_region.versions_released_in_this_region'
p1398
aS'fb:engineering.engine_category.engines'
p1399
aS'fb:aviation.airport_operator.airports_operated'
p1400
aS'fb:olympics.olympic_participating_country.olympics_participated_in'
p1401
aS'fb:automotive.model.successor'
p1402
aS'fb:chemistry.phase_of_matter.compounds_in_this_phase_at_stp'
p1403
aS'fb:music.album.acquire_webpage'
p1404
aS'fb:film.film.language'
p1405
aS'fb:media_common.literary_genre.books_in_this_genre'
p1406
aS'fb:location.us_state.capital'
p1407
aS'fb:user.hedgehog.default_domain.verifiable_statement.author'
p1408
aS'fb:architecture.building.building_complex'
p1409
aS'fb:time.calendar.days_of_year'
p1410
aS'fb:computer.web_browser.layout_engine'
p1411
aS'fb:education.field_of_study.academics_in_this_field'
p1412
aS'fb:travel.accommodation_feature.accommodation_with_this_feature'
p1413
aS'fb:type.content.uploaded_by'
p1414
aS'fb:common.topic.subjects'
p1415
aS'fb:award.competition.winner'
p1416
aS'fb:user.micahsaul.advertising.ad_campaign.advertised_thing'
p1417
aS'fb:user.jamie.food.food_additive_category.categorizes'
p1418
aS'fb:geography.mountain_pass.transversed_by'
p1419
aS'fb:fictional_universe.fictional_organization.fictional_organization_founder'
p1420
aS'fb:theater.theater_genre.plays_in_this_genre'
p1421
aS'fb:fictional_universe.fictional_organization.members'
p1422
aS'fb:soccer.football_referee.main_referee_for'
p1423
aS'fb:music.instrument.family'
p1424
aS'fb:skiing.ski_area.closest_city'
p1425
aS'fb:music.recording.producer'
p1426
aS'fb:book.poetic_verse_form.poems_of_this_form'
p1427
aS'fb:base.qualia.recreational_drug_user.drug_s'
p1428
aS'fb:geography.lake_type.lakes_of_this_type'
p1429
aS'fb:base.greatgardens.garden_tool.kind_of_tool'
p1430
aS'fb:medicine.physician.medical_specialty'
p1431
aS'fb:music.music_video.music_video_subject'
p1432
aS'fb:base.ecology.food_web_member.eats'
p1433
aS'fb:base.statistics.statistics_agency.geographic_scope'
p1434
aS'fb:religion.religious_organization.associated_with'
p1435
aS'fb:organization.organization.legal_structure'
p1436
aS'fb:basketball.basketball_conference.teams'
p1437
aS'fb:people.profession.people_with_this_profession'
p1438
aS'fb:music.release.engineers'
p1439
aS'fb:computer.programming_language.language_designers'
p1440
aS'fb:medicine.infectious_disease.vaccine'
p1441
aS'fb:royalty.royal_line.monarchs_from_this_line'
p1442
aS'fb:base.ecology.food_web_member.belongs_to_ecosystem_s'
p1443
aS'fb:influence.influence_node.influenced'
p1444
aS'fb:metropolitan_transit.transit_line.vehicle_types'
p1445
aS'fb:location.location.containedby'
p1446
aS'fb:user.micahsaul.advertising.art_director.ads'
p1447
aS'fb:base.cars_refactor.model.generations'
p1448
aS'fb:government.government_service.providing_agency'
p1449
aS'fb:user.movgp0.default_domain.measurement_system.derived_units'
p1450
aS'fb:base.schemastaging.fish.found_in'
p1451
aS'fb:base.terrorism.terrorist.involved_in_attacks'
p1452
aS'fb:education.fraternity_sorority.accepted_genders'
p1453
aS'fb:government.governmental_jurisdiction.government_bodies'
p1454
aS'fb:conferences.conference_series.subject'
p1455
aS'fb:interests.collection_category.parent_category'
p1456
aS'fb:base.cinemainspector.person_sign.star_sign'
p1457
aS'fb:education.university.fraternities_and_sororities'
p1458
aS'fb:astronomy.celestial_object_category.subcategory_of'
p1459
aS'fb:user.dylanrocks.national_football_league.nfl_stadiums_where_home_team_lost_the_first_game.team_beaten_by'
p1460
aS'fb:base.database.database.topic_s'
p1461
aS'fb:common.topic.notable_types'
p1462
aS'fb:food.cheese.country_of_origin'
p1463
aS'fb:music.album_content_type.albums'
p1464
aS'fb:base.morelaw.ceasefire.w'
p1465
aS'fb:film.film_festival_event.festival'
p1466
aS'fb:fictional_universe.character_species.characters_of_this_species'
p1467
aS'fb:base.process.process.component_stages'
p1468
aS'fb:time.holiday_period.holidays'
p1469
aS'fb:base.meedan.arabic_language_media_source.country'
p1470
aS'fb:base.godparents.godchild.godparents'
p1471
aS'fb:theater.theater_producer.plays_produced'
p1472
aS'fb:cvg.computer_game_distribution_system.games_distributed'
p1473
aS'fb:medicine.symptom.side_effect_of'
p1474
aS'fb:basketball.basketball_division.conference'
p1475
aS'fb:sports.professional_sports_team.owner_s'
p1476
aS'fb:theater.play.country_of_origin'
p1477
aS'fb:architecture.architecture_firm.projects'
p1478
aS'fb:astronomy.near_earth_object_classification.near_earth_objects'
p1479
aS'fb:law.legal_case.court'
p1480
aS'fb:distilled_spirits.distilled_spirit.fermentation_base'
p1481
aS'fb:location.de_rural_district.district_seat'
p1482
aS'fb:user.robert.mobile_phones.mobile_phone.input_interface'
p1483
aS'fb:music.release_track.release'
p1484
aS'fb:location.hud_section_8_area.county'
p1485
aS'fb:fictional_universe.work_of_fiction.part_of_these_fictional_universes'
p1486
aS'fb:people.ethnicity.languages_spoken'
p1487
aS'fb:visual_art.visual_art_medium.artworks'
p1488
aS'fb:music.music_video.artist'
p1489
aS'fb:base.biblioness.bibs_location.country'
p1490
aS'fb:education.educational_institution.parent_institution'
p1491
aS'fb:music.album.compositions'
p1492
aS'fb:comic_books.comic_book_penciler.comic_covers_penciled'
p1493
aS'fb:book.newspaper_owner.newspapers_owned'
p1494
aS'fb:sports.sports_championship_event.runner_up'
p1495
aS'fb:digicams.camera_uncompressed_format.cameras'
p1496
aS'fb:religion.religion.organizations'
p1497
aS'fb:astronomy.orbital_relationship.orbits'
p1498
aS'fb:base.pethealth.symptom.symptom_of'
p1499
aS'fb:location.hud_county_place.county'
p1500
aS'fb:games.game.designer'
p1501
aS'fb:broadcast.radio_station.serves_area'
p1502
aS'fb:amusement_parks.ride.theme'
p1503
aS'fb:computer.computer_peripheral.compatible_computers'
p1504
aS'fb:media_common.adapted_work.adaptations'
p1505
aS'fb:transportation.road.orientation'
p1506
aS'fb:symbols.name_source.namesakes'
p1507
aS'fb:base.fight.crime_type.crimes_of_this_type'
p1508
aS'fb:base.yalebase.person.worked_on_publications'
p1509
aS'fb:computer.programming_language_paradigm.languages'
p1510
aS'fb:visual_art.artwork.artist'
p1511
aS'fb:base.animemanga.anime_manga_character.anime_appearances'
p1512
aS'fb:education.academic.departments_old'
p1513
aS'fb:wine.wine_producer.wines'
p1514
aS'fb:cvg.cvg_designer.games_designed'
p1515
aS'fb:music.release.format'
p1516
aS'fb:time.time_zone.locations_in_this_time_zone'
p1517
aS'fb:base.ikariam.ikariam_resource_category.resources'
p1518
aS'fb:cvg.game_version.platform'
p1519
aS'fb:book.illustrator.book_editions_illustrated'
p1520
aS'fb:architecture.structure.architectural_style'
p1521
aS'fb:book.author.contributing_author_to'
p1522
aS'fb:biology.animal_breed.examples'
p1523
aS'fb:medicine.risk_factor.diseases'
p1524
aS'fb:visual_art.visual_artist.associated_periods_or_movements'
p1525
aS'fb:base.fictionaluniverse.deceased_fictional_character.place_of_death'
p1526
aS'fb:medicine.drug.active_moieties'
p1527
aS'fb:fictional_universe.fictional_character.children'
p1528
aS'fb:user.mt.default_domain.metabolite.biofunction'
p1529
aS'fb:food.diet.followers'
p1530
aS'fb:dining.cuisine.region_of_origin'
p1531
aS'fb:medicine.notable_person_with_medical_condition.condition'
p1532
aS'fb:common.licensed_object.license'
p1533
aS'fb:base.animemanga.manga_title.characters'
p1534
aS'fb:award.competition.instance_of_recurring_competition'
p1535
aS'fb:theater.theatrical_lyricist.play_lyrics_written'
p1536
aS'fb:people.family.members'
p1537
aS'fb:measurement_unit.dimension.units'
p1538
aS'fb:metropolitan_transit.transit_line.stops'
p1539
aS'fb:user.thalendar.default_domain.roleplaying_game.language'
p1540
aS'fb:user.mcstrother.default_domain.human_pathogenic_microbe.observed_resistances'
p1541
aS'fb:book.short_non_fiction_variety.works'
p1542
aS'fb:location.location.nearby_airports'
p1543
aS'fb:education.educational_institution.campuses'
p1544
aS'fb:film.film_festival.individual_festivals'
p1545
aS'fb:base.formula1.formula_1_grand_prix.country'
p1546
aS'fb:music.guitar.brand'
p1547
aS'fb:base.mystery.cryptid.type_of_cryptid'
p1548
aS'fb:base.gossipgirlxxx.character.played_by'
p1549
aS'fb:rail.railway.terminuses'
p1550
aS'fb:film.film.film_production_design_by'
p1551
aS'fb:aviation.aircraft_line.models_in_line'
p1552
aS'fb:user.kake.iron_chef.iron_chef.episodes_appeared_in'
p1553
aS'fb:broadcast.tv_channel.network'
p1554
aS'fb:travel.tourist_attraction.near_travel_destination'
p1555
aS'fb:base.crime.criminal_trial.criminal_defence_attorney'
p1556
aS'fb:theater.play.soundtracks'
p1557
aS'fb:book.short_story.genre'
p1558
aS'fb:people.person.profession'
p1559
aS'fb:amusement_parks.roller_coaster.propulsion'
p1560
aS'fb:distilled_spirits.spirit_producing_region.distilleries'
p1561
aS'fb:base.cars_refactor.company.primary_make'
p1562
aS'fb:amusement_parks.roller_coaster_propulsion_system.roller_coasters'
p1563
aS'fb:base.roses.roses.named_after'
p1564
aS'fb:user.carmenmfenn1.default_domain.cityscape.museums'
p1565
aS'fb:base.rugby.rugby_player.type_of_rugby'
p1566
aS'fb:base.aareas.coding_scheme.types'
p1567
aS'fb:type.type.instance'
p1568
aS'fb:biology.gene.genome'
p1569
aS'fb:user.robert.us_congress.us_representative.congressional_caucus_memberships'
p1570
aS'fb:people.profession.specialization_of'
p1571
aS'fb:tv.multipart_tv_episode.episodes'
p1572
aS'fb:book.book_subject.musical_compositions_about_this_topic'
p1573
aS'fb:measurement_unit.dimension.instruments'
p1574
aS'fb:music.recording.canonical_version'
p1575
aS'fb:location.citytown.postal_codes'
p1576
aS'fb:book.short_non_fiction.mode_of_writing'
p1577
aS'fb:base.familyguy.family_guy_reference.episodes'
p1578
aS'fb:cvg.gameplay_mode.games_with_this_mode'
p1579
aS'fb:user.alexander.philosophy.era.philosophers'
p1580
aS'fb:cvg.game_series.games_in_series'
p1581
aS'fb:base.crime.crime.victim_s'
p1582
aS'fb:base.aareas.schema.administrative_area.subdividing_type'
p1583
aS'fb:base.zionism.settlement.type_of_settlement'
p1584
aS'fb:base.livemusic.concert_venue.concerts'
p1585
aS'fb:common.image.appears_in_topic_gallery'
p1586
aS'fb:user.thalendar.default_domain.roleplaying_game.genre'
p1587
aS'fb:medicine.disease.causes'
p1588
aS'fb:comic_books.comic_book_series.publisher'
p1589
aS'fb:base.fashionmodels.fashion_model.hair_color'
p1590
aS'fb:type.property.expected_type'
p1591
aS'fb:theater.theater_production.musical_director'
p1592
aS'fb:education.educational_institution.colors'
p1593
aS'fb:astronomy.asteroid_group.asteroid_group_members'
p1594
aS'fb:biology.breed_coloring.breeds'
p1595
aS'fb:aviation.airliner_accident.accident_type'
p1596
aS'fb:travel.travel_destination.how_to_get_here'
p1597
aS'fb:medicine.drug_brand.active_ingredients'
p1598
aS'fb:architecture.building_function.buildings'
p1599
aS'fb:user.druderman.default_domain.gene.species'
p1600
aS'fb:protected_sites.protected_site.system'
p1601
aS'fb:fictional_universe.fictional_universe.works_set_here'
p1602
aS'fb:base.coinsdaily.coin_type.issuer'
p1603
aS'fb:location.hud_county_place.place'
p1604
aS'fb:book.author.school_or_movement'
p1605
aS'fb:fictional_universe.work_of_fiction.setting'
p1606
aS'fb:music.concert_tour.artist'
p1607
aS'fb:book.literary_series.author_s'
p1608
aS'fb:time.event.people_involved'
p1609
aS'fb:time.event.locations'
p1610
aS'fb:tv.tv_writer.tv_segments_written'
p1611
aS'fb:user.thadguidry.default_domain.cereal_grain.breads_made_with'
p1612
aS'fb:user.saiyr.Computers.web_framework.license'
p1613
aS'fb:internet.website_category.sites'
p1614
aS'fb:book.book_edition.language'
p1615
aS'fb:book.journal.discipline'
p1616
aS'fb:base.skosbase.skos_concept.narrower'
p1617
aS'fb:film.film.edited_by'
p1618
aS'fb:internet.blogger.blog'
p1619
aS'fb:book.book_edition.publisher'
p1620
aS'fb:base.coinsdaily.coin_type.parent_coin_type'
p1621
aS'fb:type.domain.types'
p1622
aS'fb:user.ktrueman.default_domain.international_organization.member_states'
p1623
aS'fb:comic_books.comic_book_genre.stories_in_this_genre'
p1624
aS'fb:user.robert.military.military_person.allegiance'
p1625
aS'fb:boats.ship_class.ships_in_class'
p1626
aS'fb:film.film.featured_song'
p1627
aS'fb:american_football.football_player.position_s'
p1628
aS'fb:tv.tv_program.spin_offs'
p1629
aS'fb:law.inventor.inventions'
p1630
aS'fb:business.industry.companies'
p1631
aS'fb:base.schemastaging.scholastic_library.institution'
p1632
aS'fb:base.jewlib.research_collection.geographical_scope'
p1633
aS'fb:computer.file_format.format_creator'
p1634
aS'fb:metropolitan_transit.transit_service_type.transit_lines'
p1635
aS'fb:food.dietary_restriction.incompatible_ingredients'
p1636
aS'fb:people.deceased_person.place_of_burial'
p1637
aS'fb:medicine.infectious_disease.transmission'
p1638
aS'fb:base.thoroughbredracing.thoroughbred_racehorse.grand_foal_if_horse_is_grandsire'
p1639
aS'fb:architecture.architect.architectural_style'
p1640
aS'fb:user.skud.embassies_and_consulates.embassy.to_country'
p1641
aS'fb:base.schemastaging.disputed_location_claimant.disputed_territories'
p1642
aS'fb:spaceflight.satellite_manufacturer.spacecraft_manufactured'
p1643
aS'fb:organization.organization_sector.organizations_in_this_sector'
p1644
aS'fb:user.micahsaul.advertising.ad.art_director'
p1645
aS'fb:user.robert.mobile_phones.mobile_phone.broadband_technology_supported'
p1646
aS'fb:base.fires.fire_cause.fires_caused_this_way'
p1647
aS'fb:comic_books.comic_book_character.first_appearance'
p1648
aS'fb:education.fraternity_sorority.founded_location'
p1649
aS'fb:book.periodical.subjects'
p1650
aS'fb:tv.tv_character.first_tv_appearance'
p1651
aS'fb:visual_art.artwork.media'
p1652
aS'fb:american_football.football_game.season'
p1653
aS'fb:computer.file_format.genre'
p1654
aS'fb:book.translated_work.translations'
p1655
aS'fb:base.aareas.schema.administrative_area_type.sovereignty'
p1656
aS'fb:tv.tv_series_episode.subjects'
p1657
aS'fb:event.disaster.victims'
p1658
aS'fb:base.rivalries.rival.rivals'
p1659
aS'fb:music.single.versions'
p1660
aS'fb:book.translator.works_translated'
p1661
aS'fb:business.product_with_ingredients.ingredients'
p1662
aS'fb:language.human_language.countries_spoken_in'
p1663
aS'fb:medicine.medical_treatment.trials'
p1664
aS'fb:dining.cuisine.ingredients'
p1665
aS'fb:location.ar_department.capital'
p1666
aS'fb:base.events.type_of_festival.recurring_festivals_of_this_type'
p1667
aS'fb:internet.website.parent_web_property'
p1668
aS'fb:digicams.digital_camera.compressed_formats'
p1669
aS'fb:base.truereligion.style.fit'
p1670
aS'fb:education.school_mascot.school'
p1671
aS'fb:location.us_county.county_seat'
p1672
aS'fb:education.school_district.schools'
p1673
aS'fb:people.ethnicity.included_in_group'
p1674
aS'fb:computer.software_license.versions'
p1675
aS'fb:film.film.genre'
p1676
aS'fb:spaceflight.space_mission.astronauts'
p1677
aS'fb:base.eating.diets.avoids_food_type'
p1678
aS'fb:base.usnationalparks.us_national_park.classification'
p1679
aS'fb:music.release.album'
p1680
aS'fb:fictional_universe.fictional_universe.locations'
p1681
aS'fb:cvg.cvg_genre.games'
p1682
aS'fb:geography.river.origin'
p1683
aS'fb:language.language_family.geographic_distribution'
p1684
aS'fb:base.pethealth.pet_disease_risk_factor.pet_diseases_with_this_risk_factor'
p1685
aS'fb:base.politicalconventions.political_convention.presidential_nominee'
p1686
aS'fb:base.formula1.formula_1_driver.last_race'
p1687
aS'fb:base.crime.crime_victim.crime_type'
p1688
aS'fb:theater.theater_production.choreographer'
p1689
aS'fb:medicine.medical_specialty.hospitals_with_this_specialty'
p1690
aS'fb:medicine.drug_mechanism_of_action.drugs_with_this_mechanism_of_action'
p1691
aS'fb:fictional_universe.character_occupation.characters_with_this_occupation'
p1692
aS'fb:music.composition.composer'
p1693
aS'fb:engineering.engine_category.sub_categories'
p1694
aS'fb:baseball.baseball_position.players'
p1695
aS'fb:cvg.computer_videogame.cvg_genre'
p1696
aS'fb:broadcast.radio_station.format'
p1697
aS'fb:book.school_or_movement.associated_works'
p1698
a.